ccopy_reg
_reconstructor
p1
(cdebian_linux.config
ConfigCore
p2
c__builtin__
dict
p3
(dp4
(S'base'
S'hppa'
p5
NS'parisc64'
tp6
(dp7
S'override-host-type'
p8
S'hppa64-linux-gnu'
p9
sS'cflags'
p10
S'-fno-cse-follow-jumps'
p11
ss(S'image'
S'amd64'
p12
tp13
(dp14
S'configs'
p15
(lp16
S'kernelarch-x86/config'
p17
asS'bootloaders'
p18
(lp19
S'grub-pc'
p20
aS'extlinux'
p21
aS'lilo'
p22
ass(S'description'
S's390x'
p23
NS's390x'
tp24
(dp25
S'hardware'
p26
S'IBM zSeries'
p27
sS'parts'
p28
(lp29
S'reader'
p30
ass(S'base'
p31
g12
S'none'
p32
tp33
(dp34
S'implicit-flavour'
p35
I01
sS'flavours'
p36
(lp37
S'amd64'
p38
ass(S'abi'
NS'rt'
p39
tp40
(dp41
S'ignore-changes'
p42
(lp43
S'*'
ass(S'featureset-rt'
NS''
tp44
(dp45
S'enabled'
p46
S'true'
p47
ss(S'image'
S'ia64'
p48
tp49
(dp50
S'suggests'
p51
S'fdutils'
p52
sS'bootloaders'
p53
(lp54
S'elilo'
p55
ass(S'description'
S'i386'
p56
NS'amd64'
tp57
(dp58
S'hardware'
p59
S'64-bit PCs'
p60
sS'parts'
p61
(lp62
S'xen'
p63
asS'hardware-long'
p64
S'PCs with AMD64 or Intel 64 processors'
p65
ss(S'build'
S'armel'
p66
NS'kirkwood'
tp67
(dp68
S'image-file'
p69
S'arch/arm/boot/zImage'
p70
ss(S'image'
S'sparc'
p71
NS'sparc32'
tp72
(dp73
S'image-postproc'
p74
S'sparc32-image-postproc'
p75
ss(g31
S'ppc64'
p76
g32
tp77
(dp78
g35
I01
sg36
(lp79
S'powerpc64'
p80
ass(S'description'
g5
NS'parisc64'
tp81
(dp82
S'hardware'
p83
S'64-bit PA-RISC'
p84
ss(S'base'
S'alpha'
p85
tp86
(dp87
S'kernel-arch'
p88
S'alpha'
p89
sS'featuresets'
p90
(lp91
g32
asS'compiler'
p92
S'gcc-4.5'
p93
ss(S'description'
S'mipsel'
p94
NS'sb1-bcm91250a'
tp95
(dp96
S'hardware'
p97
S'BCM91250A'
p98
sS'hardware-long'
p99
S'Broadcom BCM91250A systems (aka SWARM)'
p100
ss(S'base'
g56
tp101
(dp102
S'kernel-arch'
p103
S'x86'
p104
sS'featuresets'
p105
(lp106
g32
aS'rt'
p107
ass(S'description'
g5
NS'parisc'
tp108
(dp109
S'hardware'
p110
S'32-bit PA-RISC'
p111
ss(S'description'
g12
NS'amd64'
tp112
(dp113
S'hardware'
p114
S'64-bit PCs'
p115
sS'parts'
p116
(lp117
S'xen'
p118
asS'hardware-long'
p119
S'PCs with AMD64 or Intel 64 processors'
p120
ss(g31
S'armhf'
p121
g32
tp122
(dp123
g35
I01
sg36
(lp124
S'mx5'
p125
aS'omap'
p126
ass(S'build'
g66
NS'mv78xx0'
tp127
(dp128
S'image-file'
p129
S'arch/arm/boot/zImage'
p130
ss(S'image'
g56
NS'amd64'
tp131
(dp132
S'configs'
p133
(lp134
S'kernelarch-x86/config-arch-64'
p135
asS'recommends'
p136
S'libc6-i686'
p137
ss(S'description'
g85
NS'alpha-generic'
tp138
(dp139
S'hardware'
p140
S'Alpha'
p141
sS'hardware-long'
p142
S'DEC Alpha systems with extended kernel start address (Wildfire, Titan, Marvel)'
p143
ss(g31
S'powerpc'
p144
g32
tp145
(dp146
g35
I01
sg36
(lp147
S'powerpc'
p148
aS'powerpc-smp'
p149
aS'powerpc64'
p150
ass(S'description'
S'm68k'
p151
NS'amiga'
tp152
(dp153
S'hardware'
p154
S'Amiga'
p155
ss(S'description'
S'mips'
p156
NS'sb1-bcm91250a'
tp157
(dp158
S'hardware'
p159
S'BCM91250A'
p160
sS'hardware-long'
p161
S'Broadcom BCM91250A systems (aka SWARM)'
p162
ss(S'image'
g144
tp163
(dp164
S'suggests'
p165
S'mkvmlinuz'
p166
ss(S'description'
g71
NS'sparc32'
tp167
(dp168
S'hardware'
p169
S'uniprocessor sparc32 (sun4m)'
p170
ss(S'description'
g71
NS'sparc64-smp'
tp171
(dp172
S'hardware'
p173
S'multiprocessor 64-bit UltraSPARC'
p174
ss(S'base'
g12
S'rt'
p175
tp176
(dp177
S'flavours'
p178
(lp179
S'amd64'
p180
ass(S'build'
S'sh4'
p181
NS'sh7751r'
tp182
(dp183
S'image-file'
p184
S'arch/sh/boot/zImage'
p185
ss(S'description'
g94
NS'5kc-malta'
tp186
(dp187
S'hardware'
p188
S'MIPS Malta (64-bit)'
p189
sS'hardware-long'
p190
S'MIPS Malta boards (64-bit)'
p191
ss(S'base'
g94
tp192
(dp193
S'kernel-arch'
p194
S'mips'
p195
sg90
(lp196
g32
ass(S'image'
g94
NS'5kc-malta'
tp197
(dp198
S'configs'
p199
(lp200
S'mips/config.5kc-malta'
p201
ass(S'image'
g23
NS's390x'
tp202
(dp203
S'configs'
p204
(lp205
S's390/config.s390x'
p206
ass(S'description'
S's390'
p207
NS's390-tape'
tp208
(dp209
S'hardware'
p210
S'IBM S/390'
p211
sS'parts'
p212
(lp213
S'tape'
p214
ass(S'build'
g66
NS'ixp4xx'
tp215
(dp216
S'image-file'
p217
S'arch/arm/boot/zImage'
p218
ss(g31
g94
g32
tp219
(dp220
g35
I01
sg36
(lp221
S'r5k-cobalt'
p222
aS'sb1-bcm91250a'
p223
aS'sb1a-bcm91480b'
p224
aS'4kc-malta'
p225
aS'5kc-malta'
p226
aS'loongson-2f'
p227
ass(S'description'
g156
NS'sb1a-bcm91480b'
tp228
(dp229
S'hardware'
p230
S'BCM91480B'
p231
sS'hardware-long'
p232
S'Broadcom BCM91480B systems (aka BigSur)'
p233
ss(S'description'
g156
NS'r5k-ip32'
tp234
(dp235
S'hardware'
p236
S'SGI IP32'
p237
sS'hardware-long'
p238
S'SGI IP32 systems (O2)'
p239
ss(S'description'
g121
NS'mx5'
tp240
(dp241
S'hardware'
p242
S'Freescale i.MX51'
p243
sS'hardware-long'
p244
S'Support for Freescale i.MX51 family of processors'
p245
ss(S'description'
g85
NS'alpha-legacy'
tp246
(dp247
S'hardware'
p248
S'Alpha Legacy'
p249
sS'hardware-long'
p250
S'DEC Alpha systems with legacy kernel start address'
p251
ss(S'description'
g56
NS'486'
tp252
(dp253
S'hardware'
p254
S'older PCs'
p255
sS'parts'
p256
(lp257
S'up'
p258
asS'hardware-long'
p259
S'PCs with a single processor not supporting PAE'
p260
ss(S'description'
g151
NS'sun3'
tp261
(dp262
S'hardware'
p263
S'sun3'
p264
ss(g31
g181
g32
tp265
(dp266
g35
I01
sg36
(lp267
S'sh7751r'
p268
aS'sh7785lcr'
p269
ass(S'image'
g66
NS'iop32x'
tp270
(dp271
S'check-size'
p272
S'1441784'
p273
ss(S'description'
g5
NS'parisc64-smp'
tp274
(dp275
S'hardware'
p276
S'multiprocessor 64-bit PA-RISC'
p277
ss(S'description'
g156
NS'r4k-ip22'
tp278
(dp279
S'hardware'
p280
S'SGI IP22'
p281
sS'hardware-long'
p282
S'SGI IP22 systems (Indy, Indigo2)'
p283
ss(S'description'
g156
NS'octeon'
tp284
(dp285
S'hardware'
p286
S'Octeon'
p287
sS'hardware-long'
p288
S'Cavium Networks Octeon'
p289
ss(S'base'
g66
tp290
(dp291
S'kernel-arch'
p292
S'arm'
p293
sg90
(lp294
g32
ass(S'image'
g144
NS'powerpc-smp'
tp295
(dp296
S'configs'
p297
(lp298
S'powerpc/config.powerpc'
p299
aS'powerpc/config.powerpc-smp'
p300
ass(S'base'
g71
tp301
(dp302
S'kernel-arch'
p303
S'sparc'
p304
sg90
(lp305
g32
ass(S'image'
g23
NS's390x-tape'
tp306
(dp307
S'configs'
p308
(lp309
S's390/config.s390x-tape'
p310
asS'override-localversion'
p311
S's390x'
p312
sS'type'
p313
S'plain-s390-tape'
p314
sS'initramfs'
p315
I00
ss(S'description'
g66
NS'kirkwood'
tp316
(dp317
S'hardware'
p318
S'Marvell Kirkwood'
p319
sS'hardware-long'
p320
S'Marvell Kirkwood based systems (SheevaPlug, QNAP TS-119/TS-219, etc)'
p321
ss(g31
g207
g32
tp322
(dp323
g35
I01
sg36
(lp324
S's390x'
p325
aS's390x-tape'
p326
ass(g31
g23
g32
tp327
(dp328
g35
I01
sg36
(lp329
S's390x'
p330
aS's390x-tape'
p331
ass(S'base'
g156
tp332
(dp333
S'kernel-arch'
p334
S'mips'
p335
sg90
(lp336
g32
ass(S'build'
g12
tp337
(dp338
S'debug-info'
p339
I01
ss(S'description'
g76
NS'powerpc64'
tp340
(dp341
S'hardware'
p342
S'64-bit PowerPC'
p343
ss(S'description'
g94
NS'loongson-2f'
tp344
(dp345
S'hardware'
p346
S'Loongson 2F'
p347
sS'hardware-long'
p348
S'Lemote Loongson 2F systems'
p349
ss(S'image'
g94
tp350
(dp351
S'initramfs'
p352
I00
ss(S'description'
g56
NS'686-pae'
tp353
(dp354
S'hardware'
p355
S'modern PCs'
p356
sS'parts'
p357
(lp358
S'pae'
p359
aS'xen'
p360
asS'hardware-long'
p361
S'PCs with one or more processors supporting PAE'
p362
ss(S'description'
g66
NS'versatile'
tp363
(dp364
S'hardware'
p365
S'Versatile'
p366
sS'hardware-long'
p367
S'Versatile systems (PB, AB, Qemu)'
p368
ss(S'base'
g12
tp369
(dp370
S'kernel-arch'
p371
S'x86'
p372
sS'featuresets'
p373
(lp374
g32
ag175
ass(S'base'
g48
tp375
(dp376
S'kernel-arch'
p377
S'ia64'
p378
sg90
(lp379
g32
ass(S'description'
g151
NS'bvme6000'
tp380
(dp381
S'hardware'
p382
S'BVM BVME4000 and BVME6000'
p383
ss(S'description'
g207
NS's390x'
tp384
(dp385
S'hardware'
p386
S'IBM zSeries'
p387
sS'parts'
p388
(lp389
S'reader'
p390
ass(S'description'
g85
NS'alpha-smp'
tp391
(dp392
S'hardware'
p393
S'Alpha SMP'
p394
sS'hardware-long'
p395
S'DEC Alpha SMP systems with extended kernel start address (Wildfire, Titan, Marvel)'
p396
ss(S'base'
g207
tp397
(dp398
S'kernel-arch'
p399
S's390'
p400
sg90
(lp401
g32
ass(g31
g66
g32
tp402
(dp403
g35
I01
sg36
(lp404
S'iop32x'
p405
aS'ixp4xx'
p406
aS'kirkwood'
p407
aS'mv78xx0'
p408
aS'orion5x'
p409
aS'versatile'
p410
ass(S'description'
g181
NS'sh7785lcr'
tp411
(dp412
S'hardware'
p413
S'sh7785lcr'
p414
sS'hardware-long'
p415
S'Renesas SH7785 reference board'
p416
ss(S'build'
g181
NS'sh7785lcr'
tp417
(dp418
S'image-file'
p419
S'arch/sh/boot/zImage'
p420
ss(S'description'
g151
NS'q40'
tp421
(dp422
S'hardware'
p423
S'Q40 and Q60'
p424
ss(S'xen'
g56
NS'686-pae'
tp425
(dp426
S'flavours'
p427
(lp428
S'i386'
p429
aS'amd64'
p430
asS'dom0-support'
p431
I01
ss(S'description'
g56
tp432
(dp433
S'part-long-pae'
p434
S'This kernel requires PAE (Physical Address Extension).\nThis feature is supported by the Intel Pentium Pro/II/III/4/4M/D, Xeon,\nCore and Atom; AMD Geode NX, Athlon (K7), Duron, Opteron, Sempron,\nTurion or Phenom; Transmeta Efficeon; VIA C7; and some other processors.'
p435
ss(S'relations'
tp436
(dp437
S'initramfs-fallback'
p438
S'linux-initramfs-tool'
p439
sS'lilo'
p440
S'lilo (>= 22.8-8.2~)'
p441
sS'gcc-4.6'
p442
S'gcc-4.6'
p443
sS'gcc-4.5'
p444
S'gcc-4.5'
p445
sS'gcc-4.4'
p446
S'gcc-4.4'
p447
sS'elilo'
p448
S'elilo (>= 3.12-3.1~)'
p449
sS's390-tools'
p450
S's390-tools (>= 1.8.3-2~)'
p451
sS'initramfs-tools'
p452
S'initramfs-tools (>= 0.99~)'
p453
ss(g31
g56
g32
tp454
(dp455
g35
I01
sg36
(lp456
S'486'
p457
aS'686-pae'
p458
aS'amd64'
p459
ass(S'build'
g23
NS's390x-tape'
tp460
(dp461
S'modules'
p462
I00
ss(S'image'
g66
tp463
(dp464
S'suggests'
p465
S'fdutils'
p466
ss(S'image'
g207
tp467
(dp468
S'bootloaders'
p469
(lp470
S's390-tools'
p471
ass(S'description'
g151
NS'mvme147'
tp472
(dp473
S'hardware'
p474
S'Motorola MVME147'
p475
ss(S'relations'
g5
tp476
(dp477
S'gcc-4.4'
p478
S'gcc-4.4, binutils-hppa64, gcc-4.4-hppa64'
p479
ss(S'description'
g66
NS'ixp4xx'
tp480
(dp481
S'hardware'
p482
S'IXP4xx'
p483
sS'hardware-long'
p484
S'IXP4xx based systems (Linksys NSLU2, etc)'
p485
ss(S'description'
g151
NS'mvme16x'
tp486
(dp487
S'hardware'
p488
S'Motorola MVME162/6/7, MVME172/7'
p489
ss(S'description'
g66
NS'orion5x'
tp490
(dp491
S'hardware'
p492
S'Marvell Orion'
p493
sS'hardware-long'
p494
S'Marvell Orion 5181, 5182 and 5281 based systems (QNAP TS-109/TS-209, etc)'
p495
ss(S'image'
g56
NS'486'
tp496
(dp497
S'configs'
p498
(lp499
S'kernelarch-x86/config-arch-32'
p500
ass(S'build'
g66
NS'iop32x'
tp501
(dp502
S'image-file'
p503
S'arch/arm/boot/zImage'
p504
ss(g31
g5
g32
tp505
(dp506
g35
I01
sg36
(lp507
S'parisc'
p508
aS'parisc-smp'
p509
aS'parisc64'
p510
aS'parisc64-smp'
p511
ass(S'description'
g156
NS'4kc-malta'
tp512
(dp513
S'hardware'
p514
S'MIPS Malta'
p515
sS'hardware-long'
p516
S'MIPS Malta boards'
p517
ss(S'description'
g207
NS's390x-tape'
tp518
(dp519
S'hardware'
p520
S'IBM zSeries'
p521
sS'parts'
p522
(lp523
S'tape'
p524
ass(S'image'
g85
tp525
(dp526
S'suggests'
p527
S'aboot, fdutils'
p528
ss(S'base'
S'sparc64'
p529
tp530
(dp531
S'kernel-arch'
p532
S'sparc'
p533
sg90
(lp534
g32
ass(S'image'
g56
tp535
(dp536
S'configs'
p537
(lp538
S'kernelarch-x86/config'
p539
asS'bootloaders'
p540
(lp541
S'grub-pc'
p542
aS'extlinux'
p543
aS'lilo'
p544
ass(S'version'
p545
tp546
(dp547
S'abiname'
p548
S'3.2.0-1'
p549
sS'source'
p550
V3.2.6-1
p551
ss(S'description'
g144
NS'powerpc-smp'
tp552
(dp553
S'hardware'
p554
S'multiprocessor 32-bit PowerPC'
p555
ss(S'base'
g23
tp556
(dp557
S'kernel-arch'
p558
S's390'
p559
sg90
(lp560
g32
ass(S'description'
g207
NS's390'
tp561
(dp562
S'hardware'
p563
S'IBM S/390'
p564
sS'parts'
p565
(lp566
S'reader'
p567
ass(S'description'
g94
NS'4kc-malta'
tp568
(dp569
S'hardware'
p570
S'MIPS Malta'
p571
sS'hardware-long'
p572
S'MIPS Malta boards'
p573
ss(S'image'
g76
tp574
(dp575
S'suggests'
p576
S'mkvmlinuz'
p577
sS'configs'
p578
(lp579
S'powerpc/config'
p580
ass(S'image'
g156
tp581
(dp582
S'initramfs'
p583
I00
ss(S'xen'
g12
NS'amd64'
tp584
(dp585
S'flavours'
p586
(lp587
S'amd64'
p588
asS'dom0-support'
p589
I01
ss(S'description'
Ng39
tp590
(dp591
S'part-long-rt'
p592
S'This kernel includes the PREEMPT_RT realtime patch set.'
p593
sS'parts'
p594
(lp595
S'rt'
p596
asS'part-short-rt'
p597
S'PREEMPT_RT'
p598
ss(g31
g71
g32
tp599
(dp600
g35
I01
sg36
(lp601
S'sparc64'
p602
aS'sparc64-smp'
p603
ass(S'base'
g76
tp604
(dp605
S'kernel-arch'
p606
S'powerpc'
p607
sg90
(lp608
g32
ass(g31
g85
g32
tp609
(dp610
g35
I01
sg36
(lp611
S'alpha-generic'
p612
aS'alpha-smp'
p613
aS'alpha-legacy'
p614
ass(S'image'
g56
NS'686-pae'
tp615
(dp616
S'configs'
p617
(lp618
S'kernelarch-x86/config-arch-32'
p619
asS'recommends'
p620
S'libc6-i686'
p621
ss(g31
g48
g32
tp622
(dp623
g35
I01
sg36
(lp624
S'itanium'
p625
aS'mckinley'
p626
ass(S'description'
g207
tp627
(dp628
S'part-short-tape'
p629
S'IPL from tape'
p630
sS'part-long-tape'
p631
S'This kernel has support to IPL (boot) from a tape.'
p632
sS'part-long-reader'
p633
S'This kernel has support to IPL (boot) from a VM reader or DASD device.'
p634
ss(S'build'
g207
NS's390-tape'
tp635
(dp636
S'modules'
p637
I00
ss(S'xen'
g56
NS'amd64'
tp638
(dp639
S'flavours'
p640
(lp641
S'amd64'
p642
asS'dom0-support'
p643
I01
ss(g31
g156
g32
tp644
(dp645
g35
I01
sg36
(lp646
S'r4k-ip22'
p647
aS'r5k-ip32'
p648
aS'sb1-bcm91250a'
p649
aS'sb1a-bcm91480b'
p650
aS'4kc-malta'
p651
aS'5kc-malta'
p652
aS'octeon'
p653
ass(S'description'
g529
NS'sparc64'
tp654
(dp655
S'hardware'
p656
S'uniprocessor 64-bit UltraSPARC'
p657
ss(S'image'
g66
NS'orion5x'
tp658
(dp659
S'check-size'
p660
S'1572792'
p661
sS'recommends'
p662
S'uboot-mkimage'
p663
ss(S'image'
g94
NS'sb1a-bcm91480b'
tp664
(dp665
S'configs'
p666
(lp667
S'mips/config.sb1a-bcm91480b'
p668
ass(S'image'
g207
NS's390x-tape'
tp669
(dp670
S'override-localversion'
p671
S's390x'
p672
sS'type'
p673
S'plain-s390-tape'
p674
sS'initramfs'
p675
I00
ss(S'description'
g5
NS'parisc-smp'
tp676
(dp677
S'hardware'
p678
S'multiprocessor 32-bit PA-RISC'
p679
ss(S'build'
g56
NS'686-pae'
tp680
(dp681
S'debug-info'
p682
I01
ss(S'image'
g151
tp683
(dp684
S'suggests'
p685
S'vmelilo, fdutils'
p686
sS'initramfs'
p687
I00
ss(S'description'
g151
NS'atari'
tp688
(dp689
S'hardware'
p690
S'Atari'
p691
ss(S'build'
g121
NS'mx5'
tp692
(dp693
S'image-file'
p694
S'arch/arm/boot/zImage'
p695
ss(S'description'
g151
NS'mac'
tp696
(dp697
S'hardware'
p698
S'Macintosh'
p699
ss(S'description'
g529
NS'sparc64-smp'
tp700
(dp701
S'hardware'
p702
S'multiprocessor 64-bit UltraSPARC'
p703
ss(S'base'
g121
tp704
(dp705
S'kernel-arch'
p706
S'arm'
p707
sg90
(lp708
g32
ass(S'description'
g151
NS'hp'
tp709
(dp710
S'hardware'
p711
S'HP'
p712
ss(S'image'
g181
tp713
(dp714
S'suggests'
p715
S'fdutils'
p716
ss(S'base'
g5
tp717
(dp718
S'kernel-arch'
p719
S'parisc'
p720
sg90
(lp721
g32
asS'compiler'
p722
S'gcc-4.4'
p723
ss(S'base'
g56
g107
tp724
(dp725
S'flavours'
p726
(lp727
S'686-pae'
p728
ass(S'description'
g181
NS'sh7751r'
tp729
(dp730
S'hardware'
p731
S'sh7751r'
p732
sS'hardware-long'
p733
S'Renesas SH7751R R2D plus board'
p734
ss(S'base'
g181
tp735
(dp736
S'kernel-arch'
p737
S'sh'
p738
sg90
(lp739
g32
ass(S'image'
g71
tp740
(dp741
S'suggests'
p742
S'silo, fdutils'
p743
ss(S'description'
tp744
(dp745
S'part-long-up'
p746
S'This kernel is not suitable for SMP (multi-processor,\nmulti-core or hyper-threaded) systems.'
p747
sS'part-long-xen'
p748
S'This kernel also runs on a Xen hypervisor.\nIt supports both privileged (dom0) and unprivileged (domU) operation.'
p749
ss(S'description'
g94
NS'sb1a-bcm91480b'
tp750
(dp751
S'hardware'
p752
S'BCM91480B'
p753
sS'hardware-long'
p754
S'Broadcom BCM91480B systems (aka BigSur)'
p755
ss(S'image'
g12
NS'amd64'
tp756
(dp757
S'configs'
p758
(lp759
S'kernelarch-x86/config-arch-64'
p760
ass(S'image'
g94
NS'sb1-bcm91250a'
tp761
(dp762
S'configs'
p763
(lp764
S'mips/config.sb1-bcm91250a'
p765
ass(S'image'
g529
tp766
(dp767
S'suggests'
p768
S'silo, fdutils'
p769
sS'configs'
p770
(lp771
S'sparc/config'
p772
ass(S'description'
g48
NS'mckinley'
tp773
(dp774
S'hardware'
p775
S'Itanium II'
p776
ss(S'image'
g121
NS'omap'
tp777
(dp778
S'recommends'
p779
S'uboot-mkimage'
p780
ss(S'description'
g144
NS'powerpc'
tp781
(dp782
S'hardware'
p783
S'uniprocessor 32-bit PowerPC'
p784
ss(S'base'
g144
tp785
(dp786
S'kernel-arch'
p787
S'powerpc'
p788
sg90
(lp789
g32
ass(S'build'
g66
NS'orion5x'
tp790
(dp791
S'image-file'
p792
S'arch/arm/boot/zImage'
p793
ss(S'image'
g66
NS'kirkwood'
tp794
(dp795
S'check-size'
p796
S'2097080'
p797
sS'recommends'
p798
S'uboot-mkimage'
p799
ss(S'description'
g66
NS'iop32x'
tp800
(dp801
S'hardware'
p802
S'IOP32x'
p803
sS'hardware-long'
p804
S'IOP32x based systems (Thecus N2100, etc)'
p805
ss(S'description'
g66
NS'mv78xx0'
tp806
(dp807
S'hardware'
p808
S'Marvell 78xx0'
p809
sS'hardware-long'
p810
S'Marvell DB-78xx0-BP Development Board'
p811
ss(S'description'
g23
tp812
(dp813
S'part-short-tape'
p814
S'IPL from tape'
p815
sS'part-long-tape'
p816
S'This kernel has support to IPL (boot) from a tape.'
p817
sS'part-long-reader'
p818
S'This kernel has support to IPL (boot) from a VM reader or DASD device.'
p819
ss(S'image'
g121
tp820
(dp821
S'suggests'
p822
S'fdutils'
p823
sS'configs'
p824
(lp825
S'armel/config'
p826
aS'armhf/config'
p827
ass(S'abi'
tp828
(dp829
S'abiname'
p830
S'1'
sS'ignore-changes'
p831
(lp832
S'module:arch/x86/kvm/*'
p833
aS'fixed_phy_add'
p834
aS'fixed_phy_set_link_update'
p835
ass(S'description'
g156
NS'5kc-malta'
tp836
(dp837
S'hardware'
p838
S'MIPS Malta (64-bit)'
p839
sS'hardware-long'
p840
S'MIPS Malta boards (64-bit)'
p841
ss(g31
g151
g32
tp842
(dp843
g35
I01
sg36
(lp844
S'amiga'
p845
aS'atari'
p846
aS'bvme6000'
p847
aS'mac'
p848
aS'mvme147'
p849
aS'mvme16x'
p850
ass(S'build'
g121
NS'omap'
tp851
(dp852
S'image-file'
p853
S'arch/arm/boot/zImage'
p854
ss(S'base'
tp855
(dp856
S'arches'
p857
(lp858
S'alpha'
p859
aS'amd64'
p860
aS'armel'
p861
aS'armhf'
p862
aS'hppa'
p863
aS'i386'
p864
aS'ia64'
p865
aS'm68k'
p866
aS'mips'
p867
aS'mipsel'
p868
aS'powerpc'
p869
aS'ppc64'
p870
aS's390'
p871
aS's390x'
p872
aS'sh4'
p873
aS'sparc'
p874
aS'sparc64'
p875
asS'featuresets'
p876
(lp877
S'none'
p878
aS'rt'
p879
asS'compiler'
p880
S'gcc-4.6'
p881
ss(S'description'
g23
NS's390x-tape'
tp882
(dp883
S'hardware'
p884
S'IBM zSeries'
p885
sS'parts'
p886
(lp887
S'tape'
p888
ass(S'image'
g529
NS'sparc64-smp'
tp889
(dp890
S'configs'
p891
(lp892
S'sparc/config.sparc64-smp'
p893
ass(S'description'
g121
NS'omap'
tp894
(dp895
S'hardware'
p896
S'TI OMAP3+'
p897
sS'hardware-long'
p898
S'Texas Instruments OMAP3 or OMAP4 based systems'
p899
ss(S'base'
g151
tp900
(dp901
S'kernel-arch'
p902
S'm68k'
p903
sg90
(lp904
g32
asS'cflags'
p905
S'-ffreestanding'
p906
sS'compiler'
p907
S'gcc-4.6'
p908
ss(S'image'
g529
NS'sparc64'
tp909
(dp910
S'configs'
p911
(lp912
S'sparc/config.sparc64'
p913
ass(S'image'
tp914
(dp915
S'initramfs-generators'
p916
(lp917
S'initramfs-tools'
p918
aS'initramfs-fallback'
p919
asS'type'
p920
S'plain'
p921
ss(S'base'
g5
NS'parisc64-smp'
tp922
(dp923
S'override-host-type'
p924
S'hppa64-linux-gnu'
p925
sS'cflags'
p926
S'-fno-cse-follow-jumps'
p927
ss(S'description'
g94
NS'r5k-cobalt'
tp928
(dp929
S'hardware'
p930
S'Cobalt'
p931
sS'hardware-long'
p932
S'Cobalt systems (Qube, RaQ, Qube2, RaQ2)'
p933
ss(g31
g529
g32
tp934
(dp935
g35
I01
sg36
(lp936
S'sparc64'
p937
aS'sparc64-smp'
p938
ass(S'image'
g5
tp939
(dp940
S'suggests'
p941
S'palo'
p942
ss(S'image'
g94
NS'4kc-malta'
tp943
(dp944
S'configs'
p945
(lp946
S'mips/config.4kc-malta'
p947
ass(S'build'
g207
NS's390x-tape'
tp948
(dp949
S'modules'
p950
I00
ss(S'image'
g181
NS'sh7785lcr'
tp951
(dp952
S'check-size'
p953
S'4194304'
p954
sS'recommends'
p955
S'uboot-mkimage'
p956
ss(S'image'
g23
tp957
(dp958
S'configs'
p959
(lp960
S's390/config'
p961
asS'bootloaders'
p962
(lp963
S's390-tools'
p964
ass(S'image'
g76
NS'powerpc64'
tp965
(dp966
S'configs'
p967
(lp968
S'powerpc/config.powerpc64'
p969
ass(S'image'
g66
NS'ixp4xx'
tp970
(dp971
S'check-size'
p972
S'1441760'
p973
ss(S'image'
g207
NS's390-tape'
tp974
(dp975
S'override-localversion'
p976
S's390'
p977
sS'type'
p978
S'plain-s390-tape'
p979
sS'initramfs'
p980
I00
ss(S'description'
g144
NS'powerpc64'
tp981
(dp982
S'hardware'
p983
S'64-bit PowerPC'
p984
ss(S'description'
g71
NS'sparc64'
tp985
(dp986
S'hardware'
p987
S'uniprocessor 64-bit UltraSPARC'
p988
ss(S'description'
g48
NS'itanium'
tp989
(dp990
S'hardware'
p991
S'Itanium'
p992
sstRp993
.