ccopy_reg
_reconstructor
p1
(cdebian_linux.config
ConfigCore
p2
c__builtin__
dict
p3
(dp4
(S'image'
S'armel'
p5
NS'ixp4xx'
tp6
(dp7
S'check-size'
p8
S'1441760'
p9
ss(S'image'
S'amd64'
p10
tp11
(dp12
S'configs'
p13
(lp14
S'kernelarch-x86/config'
p15
asS'bootloaders'
p16
(lp17
S'grub-pc'
p18
aS'extlinux'
p19
aS'lilo'
p20
ass(S'description'
S'mips'
p21
NS'4kc-malta'
tp22
(dp23
S'hardware'
p24
S'MIPS Malta'
p25
sS'hardware-long'
p26
S'MIPS Malta boards'
p27
ss(S'base'
g10
S'none'
p28
tp29
(dp30
S'flavours'
p31
(lp32
S'amd64'
p33
ass(S'image'
g5
NS'iop32x'
tp34
(dp35
S'check-size'
p36
S'1441784'
p37
ss(S'image'
S'sparc64'
p38
NS'sparc64'
tp39
(dp40
S'configs'
p41
(lp42
S'sparc/config.sparc64'
p43
ass(S'image'
S'ia64'
p44
tp45
(dp46
S'suggests'
p47
S'fdutils'
p48
sS'bootloaders'
p49
(lp50
S'elilo'
p51
ass(S'description'
g5
NS'kirkwood'
tp52
(dp53
S'hardware'
p54
S'Marvell Kirkwood'
p55
sS'hardware-long'
p56
S'Marvell Kirkwood based systems (SheevaPlug, QNAP TS-119/TS-219, etc)'
p57
ss(S'xen'
S'i386'
p58
S'none'
p59
S'amd64'
tp60
(dp61
S'flavours'
p62
(lp63
S'amd64'
p64
asS'dom0-support'
p65
I01
ss(S'description'
S'hppa'
p66
NS'parisc-smp'
tp67
(dp68
S'hardware'
p69
S'multiprocessor 32-bit PA-RISC'
p70
ss(S'build'
g5
NS'ixp4xx'
tp71
(dp72
S'image-file'
p73
S'arch/arm/boot/zImage'
p74
ss(S'description'
g10
g28
S'amd64'
tp75
(dp76
S'parts'
p77
(lp78
S'xen'
p79
ass(S'base'
p80
S'ppc64'
p81
S'none'
p82
tp83
(dp84
S'implicit-flavour'
p85
I01
sS'flavours'
p86
(lp87
S'powerpc64'
p88
ass(S'image'
g81
NS'powerpc64'
tp89
(dp90
S'configs'
p91
(lp92
S'powerpc/config.powerpc64'
p93
ass(S'base'
g66
NS'parisc64-smp'
tp94
(dp95
S'override-host-type'
p96
S'hppa64-linux-gnu'
p97
sS'cflags'
p98
S'-fno-cse-follow-jumps'
p99
ss(S'description'
g21
NS'r5k-ip32'
tp100
(dp101
S'hardware'
p102
S'SGI IP32'
p103
sS'hardware-long'
p104
S'SGI IP32 systems (O2)'
p105
ss(S'base'
S'alpha'
p106
tp107
(dp108
S'kernel-arch'
p109
S'alpha'
p110
sS'featuresets'
p111
(lp112
g82
asS'compiler'
p113
S'gcc-4.5'
p114
ss(S'description'
S's390'
p115
NS's390x'
tp116
(dp117
S'hardware'
p118
S'IBM zSeries'
p119
sS'parts'
p120
(lp121
S'reader'
p122
ass(g80
S'armhf'
p123
g82
tp124
(dp125
g85
I01
sg86
(lp126
S'mx5'
p127
aS'omap'
p128
ass(S'base'
g123
tp129
(dp130
S'kernel-arch'
p131
S'arm'
p132
sg111
(lp133
g82
ass(S'build'
g123
NS'mx5'
tp134
(dp135
S'image-file'
p136
S'arch/arm/boot/zImage'
p137
ss(S'build'
g123
NS'omap'
tp138
(dp139
S'image-file'
p140
S'arch/arm/boot/zImage'
p141
ss(S'image'
g38
NS'sparc64-smp'
tp142
(dp143
S'configs'
p144
(lp145
S'sparc/config.sparc64-smp'
p146
ass(S'description'
g106
NS'alpha-legacy'
tp147
(dp148
S'hardware'
p149
S'Alpha Legacy'
p150
sS'hardware-long'
p151
S'DEC Alpha systems with legacy kernel start address'
p152
ss(S'description'
S'm68k'
p153
NS'mvme16x'
tp154
(dp155
S'hardware'
p156
S'Motorola MVME162/6/7, MVME172/7'
p157
ss(S'base'
NS'rt'
tp158
(dp159
S'enabled'
p160
I01
ss(g80
S'powerpc'
p161
g82
tp162
(dp163
g85
I01
sg86
(lp164
S'powerpc'
p165
aS'powerpc-smp'
p166
aS'powerpc64'
p167
ass(S'image'
g161
tp168
(dp169
S'suggests'
p170
S'mkvmlinuz'
p171
ss(S'description'
g44
NS'itanium'
tp172
(dp173
S'hardware'
p174
S'Itanium'
p175
ss(S'description'
g161
NS'powerpc'
tp176
(dp177
S'hardware'
p178
S'uniprocessor 32-bit PowerPC'
p179
ss(S'image'
g115
NS's390-tape'
tp180
(dp181
S'override-localversion'
p182
S's390'
p183
sS'type'
p184
S'plain-s390-tape'
p185
sS'initramfs'
p186
I00
ss(S'description'
g58
g59
S'amd64'
tp187
(dp188
S'parts'
p189
(lp190
S'xen'
p191
ass(S'image'
g58
NS'486'
tp192
(dp193
S'configs'
p194
(lp195
S'kernelarch-x86/config-arch-32'
p196
ass(S'description'
S'sparc'
p197
NS'sparc64'
tp198
(dp199
S'hardware'
p200
S'uniprocessor 64-bit UltraSPARC'
p201
ss(S'base'
g58
tp202
(dp203
S'kernel-arch'
p204
S'x86'
p205
sS'featuresets'
p206
(lp207
S'none'
p208
ass(S'description'
g161
NS'powerpc-smp'
tp209
(dp210
S'hardware'
p211
S'multiprocessor 32-bit PowerPC'
p212
ss(S'base'
S'mipsel'
p213
tp214
(dp215
S'kernel-arch'
p216
S'mips'
p217
sg111
(lp218
g82
ass(S'description'
g10
NS'amd64'
tp219
(dp220
S'hardware'
p221
S'64-bit PCs'
p222
sS'hardware-long'
p223
S'PCs with AMD64 or Intel 64 processors'
p224
ss(S'build'
g5
NS'orion5x'
tp225
(dp226
S'image-file'
p227
S'arch/arm/boot/zImage'
p228
ss(S'description'
g5
NS'ixp4xx'
tp229
(dp230
S'hardware'
p231
S'IXP4xx'
p232
sS'hardware-long'
p233
S'IXP4xx based systems (Linksys NSLU2, etc)'
p234
ss(S'description'
g153
NS'bvme6000'
tp235
(dp236
S'hardware'
p237
S'BVM BVME4000 and BVME6000'
p238
ss(S'description'
g153
NS'mac'
tp239
(dp240
S'hardware'
p241
S'Macintosh'
p242
ss(S'description'
g21
NS'octeon'
tp243
(dp244
S'hardware'
p245
S'Octeon'
p246
sS'hardware-long'
p247
S'Cavium Networks Octeon'
p248
ss(S'relations'
tp249
(dp250
S'initramfs-fallback'
p251
S'linux-initramfs-tool'
p252
sS'lilo'
p253
S'lilo (>= 22.8-8.2~)'
p254
sS'gcc-4.6'
p255
S'gcc-4.6'
p256
sS'gcc-4.5'
p257
S'gcc-4.5'
p258
sS'gcc-4.4'
p259
S'gcc-4.4'
p260
sS'elilo'
p261
S'elilo (>= 3.12-3.1~)'
p262
sS's390-tools'
p263
S's390-tools (>= 1.8.3-2~)'
p264
sS'initramfs-tools'
p265
S'initramfs-tools (>= 0.99~)'
p266
ss(S'description'
g5
NS'versatile'
tp267
(dp268
S'hardware'
p269
S'Versatile'
p270
sS'hardware-long'
p271
S'Versatile systems (PB, AB, Qemu)'
p272
ss(S'image'
g123
NS'omap'
tp273
(dp274
S'recommends'
p275
S'uboot-mkimage'
p276
ss(g80
S'sh4'
p277
g82
tp278
(dp279
g85
I01
sg86
(lp280
S'sh7751r'
p281
aS'sh7785lcr'
p282
ass(S'description'
g153
NS'mvme147'
tp283
(dp284
S'hardware'
p285
S'Motorola MVME147'
p286
ss(S'description'
g197
NS'sparc64-smp'
tp287
(dp288
S'hardware'
p289
S'multiprocessor 64-bit UltraSPARC'
p290
ss(S'base'
g5
tp291
(dp292
S'kernel-arch'
p293
S'arm'
p294
sg111
(lp295
g82
ass(S'description'
g213
NS'sb1a-bcm91480b'
tp296
(dp297
S'hardware'
p298
S'BCM91480B'
p299
sS'hardware-long'
p300
S'Broadcom BCM91480B systems (aka BigSur)'
p301
ss(S'image'
g197
NS'sparc32'
tp302
(dp303
S'image-postproc'
p304
S'sparc32-image-postproc'
p305
ss(S'version'
p306
tp307
(dp308
S'abiname'
p309
S'3.3.0-trunk'
p310
sS'source'
p311
V3.3.4-1~experimental.1
p312
ss(g80
g115
g82
tp313
(dp314
g85
I01
sg86
(lp315
S's390x'
p316
aS's390x-tape'
p317
ass(g80
S's390x'
p318
g82
tp319
(dp320
g85
I01
sg86
(lp321
S's390x'
p322
aS's390x-tape'
p323
ass(S'base'
g21
tp324
(dp325
S'kernel-arch'
p326
S'mips'
p327
sg111
(lp328
g82
ass(S'build'
g10
tp329
(dp330
S'debug-info'
p331
I01
ss(S'description'
g277
NS'sh7751r'
tp332
(dp333
S'hardware'
p334
S'sh7751r'
p335
sS'hardware-long'
p336
S'Renesas SH7751R R2D plus board'
p337
ss(S'build'
g5
NS'iop32x'
tp338
(dp339
S'image-file'
p340
S'arch/arm/boot/zImage'
p341
ss(S'description'
g153
NS'atari'
tp342
(dp343
S'hardware'
p344
S'Atari'
p345
ss(g80
g213
g82
tp346
(dp347
g85
I01
sg86
(lp348
S'r5k-cobalt'
p349
aS'sb1-bcm91250a'
p350
aS'sb1a-bcm91480b'
p351
aS'4kc-malta'
p352
aS'5kc-malta'
p353
aS'loongson-2f'
p354
ass(S'image'
g213
tp355
(dp356
S'configs'
p357
(lp358
S'kernelarch-mips/config'
p359
aS'mipsel/config'
p360
asS'initramfs'
p361
I00
ss(S'xen'
g58
g59
S'686-pae'
tp362
(dp363
S'flavours'
p364
(lp365
S'i386'
p366
aS'amd64'
p367
asS'dom0-support'
p368
I01
ss(S'description'
g123
NS'omap'
tp369
(dp370
S'hardware'
p371
S'TI OMAP3+'
p372
sS'hardware-long'
p373
S'Texas Instruments OMAP3 or OMAP4 based systems'
p374
ss(S'base'
g10
tp375
(dp376
S'kernel-arch'
p377
S'x86'
p378
sS'featuresets'
p379
(lp380
S'none'
p381
ass(S'base'
g44
tp382
(dp383
S'kernel-arch'
p384
S'ia64'
p385
sg111
(lp386
g82
ass(S'description'
g66
NS'parisc'
tp387
(dp388
S'hardware'
p389
S'32-bit PA-RISC'
p390
ss(S'build'
g58
NS'686-pae'
tp391
(dp392
S'debug-info'
p393
I01
ss(S'build'
g318
NS's390x-tape'
tp394
(dp395
S'modules'
p396
I00
ss(S'description'
g21
NS'5kc-malta'
tp397
(dp398
S'hardware'
p399
S'MIPS Malta (64-bit)'
p400
sS'hardware-long'
p401
S'MIPS Malta boards (64-bit)'
p402
ss(g80
g5
g82
tp403
(dp404
g85
I01
sg86
(lp405
S'iop32x'
p406
aS'ixp4xx'
p407
aS'kirkwood'
p408
aS'mv78xx0'
p409
aS'orion5x'
p410
aS'versatile'
p411
ass(S'image'
g213
NS'sb1-bcm91250a'
tp412
(dp413
S'configs'
p414
(lp415
S'mips/config.sb1-bcm91250a'
p416
ass(S'description'
g318
NS's390x'
tp417
(dp418
S'hardware'
p419
S'IBM zSeries'
p420
sS'parts'
p421
(lp422
S'reader'
p423
ass(S'image'
g58
NS'amd64'
tp424
(dp425
S'configs'
p426
(lp427
S'kernelarch-x86/config-arch-64'
p428
asS'recommends'
p429
S'libc6-i686'
p430
ss(S'description'
g58
NS'486'
tp431
(dp432
S'hardware'
p433
S'older PCs'
p434
sS'parts'
p435
(lp436
S'up'
p437
asS'hardware-long'
p438
S'PCs with a single processor not supporting PAE'
p439
ss(S'description'
g58
tp440
(dp441
S'part-long-pae'
p442
S'This kernel requires PAE (Physical Address Extension).\nThis feature is supported by the Intel Pentium Pro/II/III/4/4M/D, Xeon,\nCore and Atom; AMD Geode NX, Athlon (K7), Duron, Opteron, Sempron,\nTurion or Phenom; Transmeta Efficeon; VIA C7; and some other processors.'
p443
ss(S'image'
g123
tp444
(dp445
S'suggests'
p446
S'fdutils'
p447
sS'configs'
p448
(lp449
S'armel/config'
p450
aS'armhf/config'
p451
ass(S'xen'
g10
g28
S'amd64'
tp452
(dp453
S'flavours'
p454
(lp455
S'amd64'
p456
asS'dom0-support'
p457
I01
ss(S'image'
g5
tp458
(dp459
S'suggests'
p460
S'fdutils'
p461
ss(S'image'
g115
tp462
(dp463
S'bootloaders'
p464
(lp465
S's390-tools'
p466
ass(S'description'
g5
NS'mv78xx0'
tp467
(dp468
S'hardware'
p469
S'Marvell 78xx0'
p470
sS'hardware-long'
p471
S'Marvell DB-78xx0-BP Development Board'
p472
ss(S'image'
g66
tp473
(dp474
S'suggests'
p475
S'palo'
p476
ss(S'image'
g5
NS'kirkwood'
tp477
(dp478
S'check-size'
p479
S'2097080'
p480
sS'recommends'
p481
S'uboot-mkimage'
p482
ss(S'relations'
g66
tp483
(dp484
S'gcc-4.4'
p485
S'gcc-4.4, binutils-hppa64, gcc-4.4-hppa64'
p486
ss(S'description'
g5
NS'iop32x'
tp487
(dp488
S'hardware'
p489
S'IOP32x'
p490
sS'hardware-long'
p491
S'IOP32x based systems (Thecus N2100, etc)'
p492
ss(S'description'
g115
NS's390'
tp493
(dp494
S'hardware'
p495
S'IBM S/390'
p496
sS'parts'
p497
(lp498
S'reader'
p499
ass(g80
g66
g82
tp500
(dp501
g85
I01
sg86
(lp502
S'parisc'
p503
aS'parisc-smp'
p504
aS'parisc64'
p505
aS'parisc64-smp'
p506
ass(S'description'
g106
NS'alpha-smp'
tp507
(dp508
S'hardware'
p509
S'Alpha SMP'
p510
sS'hardware-long'
p511
S'DEC Alpha SMP systems with extended kernel start address (Wildfire, Titan, Marvel)'
p512
ss(S'image'
g106
tp513
(dp514
S'suggests'
p515
S'aboot, fdutils'
p516
ss(S'base'
g38
tp517
(dp518
S'kernel-arch'
p519
S'sparc'
p520
sg111
(lp521
g82
ass(S'base'
g318
tp522
(dp523
S'kernel-arch'
p524
S's390'
p525
sg111
(lp526
g82
ass(S'base'
g115
tp527
(dp528
S'kernel-arch'
p529
S's390'
p530
sg111
(lp531
g82
ass(S'base'
g66
NS'parisc64'
tp532
(dp533
S'override-host-type'
p534
S'hppa64-linux-gnu'
p535
sS'cflags'
p536
S'-fno-cse-follow-jumps'
p537
ss(S'description'
g318
NS's390x-tape'
tp538
(dp539
S'hardware'
p540
S'IBM zSeries'
p541
sS'parts'
p542
(lp543
S'tape'
p544
ass(S'description'
g277
NS'sh7785lcr'
tp545
(dp546
S'hardware'
p547
S'sh7785lcr'
p548
sS'hardware-long'
p549
S'Renesas SH7785 reference board'
p550
ss(S'image'
g81
tp551
(dp552
S'suggests'
p553
S'mkvmlinuz'
p554
sS'configs'
p555
(lp556
S'powerpc/config'
p557
ass(S'image'
g21
tp558
(dp559
S'configs'
p560
(lp561
S'kernelarch-mips/config'
p562
aS'mips/config'
p563
asS'initramfs'
p564
I00
ss(S'image'
g58
tp565
(dp566
S'configs'
p567
(lp568
S'kernelarch-x86/config'
p569
asS'bootloaders'
p570
(lp571
S'grub-pc'
p572
aS'extlinux'
p573
aS'lilo'
p574
ass(S'description'
g153
NS'amiga'
tp575
(dp576
S'hardware'
p577
S'Amiga'
p578
ss(g80
g197
g82
tp579
(dp580
g85
I01
sg86
(lp581
S'sparc64'
p582
aS'sparc64-smp'
p583
ass(S'description'
g106
NS'alpha-generic'
tp584
(dp585
S'hardware'
p586
S'Alpha'
p587
sS'hardware-long'
p588
S'DEC Alpha systems with extended kernel start address (Wildfire, Titan, Marvel)'
p589
ss(g80
g106
g82
tp590
(dp591
g85
I01
sg86
(lp592
S'alpha-generic'
p593
aS'alpha-smp'
p594
aS'alpha-legacy'
p595
ass(S'image'
g161
NS'powerpc-smp'
tp596
(dp597
S'configs'
p598
(lp599
S'powerpc/config.powerpc'
p600
aS'powerpc/config.powerpc-smp'
p601
ass(g80
g44
g82
tp602
(dp603
g85
I01
sg86
(lp604
S'itanium'
p605
aS'mckinley'
p606
ass(S'base'
g81
tp607
(dp608
S'kernel-arch'
p609
S'powerpc'
p610
sg111
(lp611
g82
ass(g80
g21
g82
tp612
(dp613
g85
I01
sg86
(lp614
S'r4k-ip22'
p615
aS'r5k-ip32'
p616
aS'sb1-bcm91250a'
p617
aS'sb1a-bcm91480b'
p618
aS'4kc-malta'
p619
aS'5kc-malta'
p620
aS'octeon'
p621
ass(S'image'
g5
NS'orion5x'
tp622
(dp623
S'check-size'
p624
S'1572792'
p625
sS'recommends'
p626
S'uboot-mkimage'
p627
ss(S'description'
g38
NS'sparc64-smp'
tp628
(dp629
S'hardware'
p630
S'multiprocessor 64-bit UltraSPARC'
p631
ss(S'description'
g115
NS's390-tape'
tp632
(dp633
S'hardware'
p634
S'IBM S/390'
p635
sS'parts'
p636
(lp637
S'tape'
p638
ass(S'image'
g10
NS'amd64'
tp639
(dp640
S'configs'
p641
(lp642
S'kernelarch-x86/config-arch-64'
p643
ass(S'image'
g153
tp644
(dp645
S'suggests'
p646
S'vmelilo, fdutils'
p647
sS'initramfs'
p648
I00
ss(S'description'
g115
tp649
(dp650
S'part-short-tape'
p651
S'IPL from tape'
p652
sS'part-long-tape'
p653
S'This kernel has support to IPL (boot) from a tape.'
p654
sS'part-long-reader'
p655
S'This kernel has support to IPL (boot) from a VM reader or DASD device.'
p656
ss(S'description'
g21
NS'sb1-bcm91250a'
tp657
(dp658
S'hardware'
p659
S'BCM91250A'
p660
sS'hardware-long'
p661
S'Broadcom BCM91250A systems (aka SWARM)'
p662
ss(S'image'
g213
NS'sb1a-bcm91480b'
tp663
(dp664
S'configs'
p665
(lp666
S'mips/config.sb1a-bcm91480b'
p667
ass(S'description'
g21
NS'r4k-ip22'
tp668
(dp669
S'hardware'
p670
S'SGI IP22'
p671
sS'hardware-long'
p672
S'SGI IP22 systems (Indy, Indigo2)'
p673
ss(S'description'
g66
NS'parisc64-smp'
tp674
(dp675
S'hardware'
p676
S'multiprocessor 64-bit PA-RISC'
p677
ss(S'image'
g277
tp678
(dp679
S'suggests'
p680
S'fdutils'
p681
ss(S'build'
g277
NS'sh7751r'
tp682
(dp683
S'image-file'
p684
S'arch/sh/boot/zImage'
p685
ss(S'base'
g66
tp686
(dp687
S'kernel-arch'
p688
S'parisc'
p689
sg111
(lp690
g82
asS'compiler'
p691
S'gcc-4.4'
p692
ss(S'base'
g277
tp693
(dp694
S'kernel-arch'
p695
S'sh'
p696
sg111
(lp697
g82
ass(S'image'
g318
NS's390x-tape'
tp698
(dp699
S'configs'
p700
(lp701
S's390/config.s390x-tape'
p702
asS'override-localversion'
p703
S's390x'
p704
sS'type'
p705
S'plain-s390-tape'
p706
sS'initramfs'
p707
I00
ss(S'image'
g197
tp708
(dp709
S'suggests'
p710
S'silo, fdutils'
p711
ss(S'description'
tp712
(dp713
S'part-long-up'
p714
S'This kernel is not suitable for SMP (multi-processor,\nmulti-core or hyper-threaded) systems.'
p715
sS'part-long-xen'
p716
S'This kernel also runs on a Xen hypervisor.\nIt supports both privileged (dom0) and unprivileged (domU) operation.'
p717
ss(S'description'
g123
NS'mx5'
tp718
(dp719
S'hardware'
p720
S'Freescale i.MX51'
p721
sS'hardware-long'
p722
S'Support for Freescale i.MX51 family of processors'
p723
ss(S'description'
g213
NS'5kc-malta'
tp724
(dp725
S'hardware'
p726
S'MIPS Malta (64-bit)'
p727
sS'hardware-long'
p728
S'MIPS Malta boards (64-bit)'
p729
ss(S'description'
g58
g59
S'686-pae'
tp730
(dp731
S'parts'
p732
(lp733
S'xen'
p734
ass(S'image'
g38
tp735
(dp736
S'suggests'
p737
S'silo, fdutils'
p738
sS'configs'
p739
(lp740
S'sparc/config'
p741
ass(S'image'
g213
NS'5kc-malta'
tp742
(dp743
S'configs'
p744
(lp745
S'mips/config.5kc-malta'
p746
ass(S'base'
g161
tp747
(dp748
S'kernel-arch'
p749
S'powerpc'
p750
sg111
(lp751
g82
ass(S'description'
g213
NS'sb1-bcm91250a'
tp752
(dp753
S'hardware'
p754
S'BCM91250A'
p755
sS'hardware-long'
p756
S'Broadcom BCM91250A systems (aka SWARM)'
p757
ss(S'description'
g5
NS'orion5x'
tp758
(dp759
S'hardware'
p760
S'Marvell Orion'
p761
sS'hardware-long'
p762
S'Marvell Orion 5181, 5182 and 5281 based systems (QNAP TS-109/TS-209, etc)'
p763
ss(S'build'
g115
NS's390-tape'
tp764
(dp765
S'modules'
p766
I00
ss(S'description'
g44
NS'mckinley'
tp767
(dp768
S'hardware'
p769
S'Itanium II'
p770
ss(S'description'
NS'rt'
p771
tp772
(dp773
S'part-long-rt'
p774
S'This kernel includes the PREEMPT_RT realtime patch set.'
p775
sS'parts'
p776
(lp777
S'rt'
p778
asS'part-short-rt'
p779
S'PREEMPT_RT'
p780
ss(S'description'
g38
NS'sparc64'
tp781
(dp782
S'hardware'
p783
S'uniprocessor 64-bit UltraSPARC'
p784
ss(S'description'
g213
NS'4kc-malta'
tp785
(dp786
S'hardware'
p787
S'MIPS Malta'
p788
sS'hardware-long'
p789
S'MIPS Malta boards'
p790
ss(S'description'
g318
tp791
(dp792
S'part-short-tape'
p793
S'IPL from tape'
p794
sS'part-long-tape'
p795
S'This kernel has support to IPL (boot) from a tape.'
p796
sS'part-long-reader'
p797
S'This kernel has support to IPL (boot) from a VM reader or DASD device.'
p798
ss(S'image'
g318
NS's390x'
tp799
(dp800
S'configs'
p801
(lp802
S's390/config.s390x'
p803
ass(S'abi'
tp804
(dp805
S'abiname'
p806
S'trunk'
p807
ss(S'description'
g58
NS'amd64'
tp808
(dp809
S'hardware'
p810
S'64-bit PCs'
p811
sS'hardware-long'
p812
S'PCs with AMD64 or Intel 64 processors'
p813
ss(S'image'
g115
NS's390x-tape'
tp814
(dp815
S'override-localversion'
p816
S's390x'
p817
sS'type'
p818
S'plain-s390-tape'
p819
sS'initramfs'
p820
I00
ss(S'description'
g21
NS'sb1a-bcm91480b'
tp821
(dp822
S'hardware'
p823
S'BCM91480B'
p824
sS'hardware-long'
p825
S'Broadcom BCM91480B systems (aka BigSur)'
p826
ss(g80
g153
g82
tp827
(dp828
g85
I01
sg86
(lp829
S'amiga'
p830
aS'atari'
p831
aS'bvme6000'
p832
aS'mac'
p833
aS'mvme147'
p834
aS'mvme16x'
p835
ass(S'base'
g58
g59
tp836
(dp837
S'flavours'
p838
(lp839
S'486'
p840
aS'686-pae'
p841
aS'amd64'
p842
ass(S'base'
tp843
(dp844
S'arches'
p845
(lp846
S'alpha'
p847
aS'amd64'
p848
aS'armel'
p849
aS'armhf'
p850
aS'hppa'
p851
aS'i386'
p852
aS'ia64'
p853
aS'm68k'
p854
aS'mips'
p855
aS'mipsel'
p856
aS'powerpc'
p857
aS'ppc64'
p858
aS's390'
p859
aS's390x'
p860
aS'sh4'
p861
aS'sparc'
p862
aS'sparc64'
p863
asS'featuresets'
p864
(lp865
S'none'
p866
aS'rt'
p867
asS'compiler'
p868
S'gcc-4.6'
p869
ss(S'description'
g66
NS'parisc64'
tp870
(dp871
S'hardware'
p872
S'64-bit PA-RISC'
p873
ss(S'build'
g5
NS'kirkwood'
tp874
(dp875
S'image-file'
p876
S'arch/arm/boot/zImage'
p877
ss(S'build'
g5
NS'mv78xx0'
tp878
(dp879
S'image-file'
p880
S'arch/arm/boot/zImage'
p881
ss(S'abi'
Ng771
tp882
(dp883
S'ignore-changes'
p884
(lp885
S'*'
ass(S'build'
g115
NS's390x-tape'
tp886
(dp887
S'modules'
p888
I00
ss(S'base'
g197
tp889
(dp890
S'kernel-arch'
p891
S'sparc'
p892
sg111
(lp893
g82
ass(S'base'
g153
tp894
(dp895
S'kernel-arch'
p896
S'm68k'
p897
sg111
(lp898
g82
asS'cflags'
p899
S'-ffreestanding'
p900
sS'compiler'
p901
S'gcc-4.6'
p902
ss(S'image'
tp903
(dp904
S'initramfs-generators'
p905
(lp906
S'initramfs-tools'
p907
aS'initramfs-fallback'
p908
asS'type'
p909
S'plain'
p910
ss(S'description'
g213
NS'loongson-2f'
tp911
(dp912
S'hardware'
p913
S'Loongson 2F'
p914
sS'hardware-long'
p915
S'Lemote Loongson 2F systems'
p916
ss(g80
g38
g82
tp917
(dp918
g85
I01
sg86
(lp919
S'sparc64'
p920
aS'sparc64-smp'
p921
ass(S'description'
g81
NS'powerpc64'
tp922
(dp923
S'hardware'
p924
S'64-bit PowerPC'
p925
ss(S'build'
g277
NS'sh7785lcr'
tp926
(dp927
S'image-file'
p928
S'arch/sh/boot/zImage'
p929
ss(S'image'
g213
NS'4kc-malta'
tp930
(dp931
S'configs'
p932
(lp933
S'mips/config.4kc-malta'
p934
ass(S'image'
g277
NS'sh7785lcr'
tp935
(dp936
S'check-size'
p937
S'4194304'
p938
sS'recommends'
p939
S'uboot-mkimage'
p940
ss(S'description'
g58
NS'686-pae'
tp941
(dp942
S'hardware'
p943
S'modern PCs'
p944
sS'parts'
p945
(lp946
S'pae'
p947
asS'hardware-long'
p948
S'PCs with one or more processors supporting PAE'
p949
ss(S'description'
g161
NS'powerpc64'
tp950
(dp951
S'hardware'
p952
S'64-bit PowerPC'
p953
ss(S'description'
g197
NS'sparc32'
tp954
(dp955
S'hardware'
p956
S'uniprocessor sparc32 (sun4m)'
p957
ss(S'image'
g318
tp958
(dp959
S'configs'
p960
(lp961
S's390/config'
p962
asS'bootloaders'
p963
(lp964
S's390-tools'
p965
ass(S'image'
g58
NS'686-pae'
tp966
(dp967
S'configs'
p968
(lp969
S'kernelarch-x86/config-arch-32'
p970
asS'recommends'
p971
S'libc6-i686'
p972
ss(S'description'
g213
NS'r5k-cobalt'
tp973
(dp974
S'hardware'
p975
S'Cobalt'
p976
sS'hardware-long'
p977
S'Cobalt systems (Qube, RaQ, Qube2, RaQ2)'
p978
ss(S'description'
g115
NS's390x-tape'
tp979
(dp980
S'hardware'
p981
S'IBM zSeries'
p982
sS'parts'
p983
(lp984
S'tape'
p985
asstRp986
.