ccopy_reg
_reconstructor
p1
(cdebian_linux.config
ConfigCore
p2
c__builtin__
dict
p3
(dp4
(S'description'
S'hppa'
p5
NS'parisc64-smp'
tp6
(dp7
S'hardware'
p8
S'multiprocessor 64-bit PA-RISC'
p9
ss(S'image'
S'amd64'
p10
tp11
(dp12
S'configs'
p13
(lp14
S'kernelarch-x86/config'
p15
asS'bootloaders'
p16
(lp17
S'grub-pc'
p18
aS'extlinux'
p19
aS'lilo'
p20
ass(S'build'
S's390x'
p21
NS's390x'
tp22
(dp23
S'debug-info'
p24
I01
ss(S'description'
g5
NS'parisc'
tp25
(dp26
S'hardware'
p27
S'32-bit PA-RISC'
p28
ss(S'description'
S'powerpc'
p29
NS'powerpc64'
tp30
(dp31
S'hardware'
p32
S'64-bit PowerPC'
p33
ss(S'base'
g10
S'none'
p34
tp35
(dp36
S'flavours'
p37
(lp38
S'amd64'
p39
ass(S'description'
S'mips'
p40
NS'4kc-malta'
tp41
(dp42
S'hardware'
p43
S'MIPS Malta'
p44
sS'hardware-long'
p45
S'MIPS Malta boards'
p46
ss(S'image'
S'ia64'
p47
tp48
(dp49
S'suggests'
p50
S'fdutils'
p51
sS'bootloaders'
p52
(lp53
S'elilo'
p54
ass(S'description'
S'mipsel'
p55
NS'sb1a-bcm91480b'
tp56
(dp57
S'hardware'
p58
S'BCM91480B'
p59
sS'hardware-long'
p60
S'Broadcom BCM91480B systems (aka BigSur)'
p61
ss(S'description'
g5
NS'parisc64'
tp62
(dp63
S'hardware'
p64
S'64-bit PA-RISC'
p65
ss(S'xen'
S'i386'
p66
S'none'
p67
S'amd64'
tp68
(dp69
S'flavours'
p70
(lp71
S'amd64'
p72
asS'dom0-support'
p73
I01
ss(S'image'
g21
NS's390x-tape'
tp74
(dp75
S'configs'
p76
(lp77
S's390/config.s390x-tape'
p78
asS'override-localversion'
p79
S's390x'
p80
sS'type'
p81
S'plain-s390-tape'
p82
sS'initramfs'
p83
I00
ss(S'version'
p84
tp85
(dp86
S'abiname'
p87
S'3.2.0-3'
p88
sS'source'
p89
V3.2.21-3
p90
ss(S'description'
g10
g34
S'amd64'
tp91
(dp92
S'parts'
p93
(lp94
S'xen'
p95
ass(S'base'
g5
NS'parisc64'
tp96
(dp97
S'override-host-type'
p98
S'hppa64-linux-gnu'
p99
sS'cflags'
p100
S'-fno-cse-follow-jumps'
p101
ss(S'description'
S'm68k'
p102
NS'mvme16x'
tp103
(dp104
S'hardware'
p105
S'Motorola MVME162/6/7, MVME172/7'
p106
ss(S'base'
p107
S'ppc64'
p108
S'none'
p109
tp110
(dp111
S'implicit-flavour'
p112
I01
sS'flavours'
p113
(lp114
S'powerpc64'
p115
ass(S'description'
g10
NS'amd64'
tp116
(dp117
S'hardware'
p118
S'64-bit PCs'
p119
sS'hardware-long'
p120
S'PCs with AMD64 or Intel 64 processors'
p121
ss(S'description'
g55
NS'loongson-2f'
tp122
(dp123
S'hardware'
p124
S'Loongson 2F'
p125
sS'hardware-long'
p126
S'Lemote Loongson 2F systems'
p127
ss(S'build'
S'armel'
p128
NS'kirkwood'
tp129
(dp130
S'image-file'
p131
S'arch/arm/boot/zImage'
p132
ss(S'build'
g128
NS'mv78xx0'
tp133
(dp134
S'image-file'
p135
S'arch/arm/boot/zImage'
p136
ss(S'description'
S'alpha'
p137
NS'alpha-generic'
tp138
(dp139
S'hardware'
p140
S'Alpha'
p141
sS'hardware-long'
p142
S'DEC Alpha systems with extended kernel start address (Wildfire, Titan, Marvel)'
p143
ss(S'base'
g137
tp144
(dp145
S'kernel-arch'
p146
S'alpha'
p147
sS'featuresets'
p148
(lp149
g109
asS'compiler'
p150
S'gcc-4.5'
p151
ss(S'description'
g66
NS'686-pae'
tp152
(dp153
S'hardware'
p154
S'modern PCs'
p155
sS'parts'
p156
(lp157
S'pae'
p158
asS'hardware-long'
p159
S'PCs with one or more processors supporting PAE'
p160
ss(g107
S'armhf'
p161
g109
tp162
(dp163
g112
I01
sg113
(lp164
S'mx5'
p165
aS'omap'
p166
aS'vexpress'
p167
ass(S'base'
g161
tp168
(dp169
S'kernel-arch'
p170
S'arm'
p171
sg148
(lp172
g109
ass(S'base'
g66
S'rt'
tp173
(dp174
S'flavours'
p175
(lp176
S'686-pae'
p177
ass(S'image'
S's390'
p178
NS's390-tape'
tp179
(dp180
S'override-localversion'
p181
S's390'
p182
sS'type'
p183
S'plain-s390-tape'
p184
sS'initramfs'
p185
I00
ss(g107
g29
g109
tp186
(dp187
g112
I01
sg113
(lp188
S'powerpc'
p189
aS'powerpc-smp'
p190
aS'powerpc64'
p191
ass(S'description'
S'sparc'
p192
NS'sparc64'
tp193
(dp194
S'hardware'
p195
S'uniprocessor 64-bit UltraSPARC'
p196
ss(S'image'
g66
NS'amd64'
tp197
(dp198
S'configs'
p199
(lp200
S'kernelarch-x86/config-arch-64'
p201
asS'recommends'
p202
S'libc6-i686'
p203
ss(S'image'
g29
tp204
(dp205
S'suggests'
p206
S'mkvmlinuz'
p207
ss(S'base'
g10
S'rt'
tp208
(dp209
S'flavours'
p210
(lp211
S'amd64'
p212
ass(S'description'
g102
NS'atari'
tp213
(dp214
S'hardware'
p215
S'Atari'
p216
ss(S'description'
g40
NS'r5k-ip32'
tp217
(dp218
S'hardware'
p219
S'SGI IP32'
p220
sS'hardware-long'
p221
S'SGI IP32 systems (O2)'
p222
ss(S'description'
g55
NS'4kc-malta'
tp223
(dp224
S'hardware'
p225
S'MIPS Malta'
p226
sS'hardware-long'
p227
S'MIPS Malta boards'
p228
ss(S'description'
g66
g67
S'amd64'
tp229
(dp230
S'parts'
p231
(lp232
S'xen'
p233
ass(S'image'
g128
NS'kirkwood'
tp234
(dp235
S'check-size'
p236
S'2097080'
p237
sS'recommends'
p238
S'uboot-mkimage'
p239
ss(S'base'
g66
tp240
(dp241
S'kernel-arch'
p242
S'x86'
p243
sS'featuresets'
p244
(lp245
S'none'
p246
aS'rt'
p247
ass(S'base'
g55
tp248
(dp249
S'kernel-arch'
p250
S'mips'
p251
sg148
(lp252
g109
ass(S'base'
g5
NS'parisc64-smp'
tp253
(dp254
S'override-host-type'
p255
S'hppa64-linux-gnu'
p256
sS'cflags'
p257
S'-fno-cse-follow-jumps'
p258
ss(S'description'
g40
NS'sb1a-bcm91480b'
tp259
(dp260
S'hardware'
p261
S'BCM91480B'
p262
sS'hardware-long'
p263
S'Broadcom BCM91480B systems (aka BigSur)'
p264
ss(S'build'
g178
NS's390-tape'
tp265
(dp266
S'modules'
p267
I00
ss(S'description'
g137
NS'alpha-legacy'
tp268
(dp269
S'hardware'
p270
S'Alpha Legacy'
p271
sS'hardware-long'
p272
S'DEC Alpha systems with legacy kernel start address'
p273
ss(g107
g55
g109
tp274
(dp275
g112
I01
sg113
(lp276
S'r5k-cobalt'
p277
aS'sb1-bcm91250a'
p278
aS'sb1a-bcm91480b'
p279
aS'4kc-malta'
p280
aS'5kc-malta'
p281
aS'loongson-2f'
p282
ass(S'relations'
tp283
(dp284
S'initramfs-fallback'
p285
S'linux-initramfs-tool'
p286
sS'lilo'
p287
S'lilo (>= 22.8-8.2~)'
p288
sS'gcc-4.6'
p289
S'gcc-4.6'
p290
sS'gcc-4.5'
p291
S'gcc-4.5'
p292
sS'gcc-4.4'
p293
S'gcc-4.4'
p294
sS'elilo'
p295
S'elilo (>= 3.12-3.1~)'
p296
sS's390-tools'
p297
S's390-tools (>= 1.8.3-2~)'
p298
sS'initramfs-tools'
p299
S'initramfs-tools (>= 0.99~)'
p300
ss(S'build'
g161
NS'mx5'
tp301
(dp302
S'image-file'
p303
S'arch/arm/boot/zImage'
p304
ss(S'build'
g128
NS'ixp4xx'
tp305
(dp306
S'image-file'
p307
S'arch/arm/boot/zImage'
p308
ss(S'description'
g40
NS'r4k-ip22'
tp309
(dp310
S'hardware'
p311
S'SGI IP22'
p312
sS'hardware-long'
p313
S'SGI IP22 systems (Indy, Indigo2)'
p314
ss(S'image'
g29
NS'powerpc-smp'
tp315
(dp316
S'configs'
p317
(lp318
S'powerpc/config.powerpc'
p319
aS'powerpc/config.powerpc-smp'
p320
ass(S'description'
g40
NS'5kc-malta'
tp321
(dp322
S'hardware'
p323
S'MIPS Malta (64-bit)'
p324
sS'hardware-long'
p325
S'MIPS Malta boards (64-bit)'
p326
ss(g107
S'sh4'
p327
g109
tp328
(dp329
g112
I01
sg113
(lp330
S'sh7751r'
p331
aS'sh7785lcr'
p332
ass(S'description'
g161
NS'mx5'
tp333
(dp334
S'hardware'
p335
S'Freescale i.MX51'
p336
sS'hardware-long'
p337
S'Support for Freescale i.MX51 family of processors'
p338
ss(S'description'
g128
NS'kirkwood'
tp339
(dp340
S'hardware'
p341
S'Marvell Kirkwood'
p342
sS'hardware-long'
p343
S'Marvell Kirkwood based systems (SheevaPlug, QNAP TS-119/TS-219, etc)'
p344
ss(S'base'
g128
tp345
(dp346
S'kernel-arch'
p347
S'arm'
p348
sg148
(lp349
g109
ass(S'base'
g192
tp350
(dp351
S'kernel-arch'
p352
S'sparc'
p353
sg148
(lp354
g109
ass(S'description'
g192
NS'sparc64-smp'
tp355
(dp356
S'hardware'
p357
S'multiprocessor 64-bit UltraSPARC'
p358
ss(S'description'
g102
NS'mvme147'
tp359
(dp360
S'hardware'
p361
S'Motorola MVME147'
p362
ss(g107
g178
g109
tp363
(dp364
g112
I01
sg113
(lp365
S's390x'
p366
aS's390x-tape'
p367
ass(S'build'
g66
NS'686-pae'
tp368
(dp369
S'debug-info'
p370
I01
ss(g107
g21
g109
tp371
(dp372
g112
I01
sg113
(lp373
S's390x'
p374
aS's390x-tape'
p375
ass(S'base'
g40
tp376
(dp377
S'kernel-arch'
p378
S'mips'
p379
sg148
(lp380
g109
ass(S'description'
g21
NS's390x'
tp381
(dp382
S'hardware'
p383
S'IBM zSeries'
p384
sS'parts'
p385
(lp386
S'reader'
p387
ass(S'build'
g10
tp388
(dp389
S'debug-info'
p390
I01
ss(S'abi'
NS'rt'
p391
tp392
(dp393
S'ignore-changes'
p394
(lp395
S'*'
ass(S'image'
g55
tp396
(dp397
S'configs'
p398
(lp399
S'kernelarch-mips/config'
p400
aS'mipsel/config'
p401
asS'initramfs'
p402
I00
ss(S'xen'
g66
g67
S'686-pae'
tp403
(dp404
S'flavours'
p405
(lp406
S'i386'
p407
aS'amd64'
p408
asS'dom0-support'
p409
I01
ss(S'description'
g137
NS'alpha-smp'
tp410
(dp411
S'hardware'
p412
S'Alpha SMP'
p413
sS'hardware-long'
p414
S'DEC Alpha SMP systems with extended kernel start address (Wildfire, Titan, Marvel)'
p415
ss(S'description'
S'sparc64'
p416
NS'sparc64-smp'
tp417
(dp418
S'hardware'
p419
S'multiprocessor 64-bit UltraSPARC'
p420
ss(S'base'
g10
tp421
(dp422
S'kernel-arch'
p423
S'x86'
p424
sS'featuresets'
p425
(lp426
S'none'
p427
aS'rt'
p428
ass(S'base'
g47
tp429
(dp430
S'kernel-arch'
p431
S'ia64'
p432
sg148
(lp433
g109
ass(S'image'
g55
NS'sb1-bcm91250a'
tp434
(dp435
S'configs'
p436
(lp437
S'mips/config.sb1-bcm91250a'
p438
ass(S'build'
g178
NS's390x'
tp439
(dp440
S'debug-info'
p441
I01
ss(S'image'
g327
NS'sh7785lcr'
tp442
(dp443
S'check-size'
p444
S'4194304'
p445
sS'recommends'
p446
S'uboot-mkimage'
p447
ss(S'base'
g178
tp448
(dp449
S'kernel-arch'
p450
S's390'
p451
sg148
(lp452
g109
ass(g107
g128
g109
tp453
(dp454
g112
I01
sg113
(lp455
S'iop32x'
p456
aS'ixp4xx'
p457
aS'kirkwood'
p458
aS'mv78xx0'
p459
aS'orion5x'
p460
aS'versatile'
p461
ass(S'description'
g66
NS'amd64'
tp462
(dp463
S'hardware'
p464
S'64-bit PCs'
p465
sS'hardware-long'
p466
S'PCs with AMD64 or Intel 64 processors'
p467
ss(S'description'
g66
tp468
(dp469
S'part-long-pae'
p470
S'This kernel requires PAE (Physical Address Extension).\nThis feature is supported by the Intel Pentium Pro/II/III/4/4M/D, Xeon,\nCore and Atom; AMD Geode NX, Athlon (K7), Duron, Opteron, Sempron,\nTurion or Phenom; Transmeta Efficeon; VIA C7; and some other processors.'
p471
ss(S'image'
g10
NS'amd64'
tp472
(dp473
S'configs'
p474
(lp475
S'kernelarch-x86/config-arch-64'
p476
ass(S'description'
g178
NS's390x'
tp477
(dp478
S'hardware'
p479
S'IBM zSeries'
p480
sS'parts'
p481
(lp482
S'reader'
p483
ass(S'base'
g66
g67
tp484
(dp485
S'flavours'
p486
(lp487
S'486'
p488
aS'686-pae'
p489
aS'amd64'
p490
ass(S'xen'
g10
g34
S'amd64'
tp491
(dp492
S'flavours'
p493
(lp494
S'amd64'
p495
asS'dom0-support'
p496
I01
ss(S'description'
g21
NS's390x-tape'
tp497
(dp498
S'hardware'
p499
S'IBM zSeries'
p500
sS'parts'
p501
(lp502
S'tape'
p503
ass(S'image'
g128
tp504
(dp505
S'suggests'
p506
S'fdutils'
p507
ss(S'image'
g178
tp508
(dp509
S'bootloaders'
p510
(lp511
S's390-tools'
p512
ass(S'abi'
g21
tp513
(dp514
S'ignore-changes'
p515
(lp516
S'arch_pick_mmap_layout'
p517
ass(S'image'
g66
NS'486'
tp518
(dp519
S'configs'
p520
(lp521
S'kernelarch-x86/config-arch-32'
p522
ass(S'image'
g55
NS'sb1a-bcm91480b'
tp523
(dp524
S'configs'
p525
(lp526
S'mips/config.sb1a-bcm91480b'
p527
ass(S'description'
g47
NS'mckinley'
tp528
(dp529
S'hardware'
p530
S'Itanium II'
p531
ss(S'relations'
g5
tp532
(dp533
S'gcc-4.4'
p534
S'gcc-4.4, binutils-hppa64, gcc-4.4-hppa64'
p535
ss(S'image'
g161
NS'omap'
tp536
(dp537
S'recommends'
p538
S'uboot-mkimage'
p539
ss(S'description'
g29
NS'powerpc'
tp540
(dp541
S'hardware'
p542
S'uniprocessor 32-bit PowerPC'
p543
ss(S'abi'
g178
tp544
(dp545
S'ignore-changes'
p546
(lp547
S'arch_pick_mmap_layout'
p548
ass(S'image'
g55
NS'4kc-malta'
tp549
(dp550
S'configs'
p551
(lp552
S'mips/config.4kc-malta'
p553
ass(g107
g5
g109
tp554
(dp555
g112
I01
sg113
(lp556
S'parisc'
p557
aS'parisc-smp'
p558
aS'parisc64'
p559
aS'parisc64-smp'
p560
ass(S'build'
g178
NS's390x-tape'
tp561
(dp562
S'modules'
p563
I00
ss(S'image'
g137
tp564
(dp565
S'suggests'
p566
S'aboot, fdutils'
p567
ss(S'description'
g128
NS'orion5x'
tp568
(dp569
S'hardware'
p570
S'Marvell Orion'
p571
sS'hardware-long'
p572
S'Marvell Orion 5181, 5182 and 5281 based systems (QNAP TS-109/TS-209, etc)'
p573
ss(S'base'
g416
tp574
(dp575
S'kernel-arch'
p576
S'sparc'
p577
sg148
(lp578
g109
ass(S'build'
g128
NS'iop32x'
tp579
(dp580
S'image-file'
p581
S'arch/arm/boot/zImage'
p582
ss(S'base'
NS'rt'
tp583
(dp584
S'enabled'
p585
I01
ss(S'description'
g55
NS'5kc-malta'
tp586
(dp587
S'hardware'
p588
S'MIPS Malta (64-bit)'
p589
sS'hardware-long'
p590
S'MIPS Malta boards (64-bit)'
p591
ss(S'base'
g21
tp592
(dp593
S'kernel-arch'
p594
S's390'
p595
sg148
(lp596
g109
ass(S'description'
g55
NS'r5k-cobalt'
tp597
(dp598
S'hardware'
p599
S'Cobalt'
p600
sS'hardware-long'
p601
S'Cobalt systems (Qube, RaQ, Qube2, RaQ2)'
p602
ss(S'image'
g55
NS'loongson-2f'
tp603
(dp604
S'recommends'
p605
S'libc6-loongson2f'
p606
ss(S'build'
g128
NS'orion5x'
tp607
(dp608
S'image-file'
p609
S'arch/arm/boot/zImage'
p610
ss(S'image'
g108
tp611
(dp612
S'suggests'
p613
S'mkvmlinuz'
p614
sS'configs'
p615
(lp616
S'powerpc/config'
p617
ass(S'image'
g40
tp618
(dp619
S'configs'
p620
(lp621
S'kernelarch-mips/config'
p622
aS'mips/config'
p623
asS'initramfs'
p624
I00
ss(S'image'
g66
tp625
(dp626
S'configs'
p627
(lp628
S'kernelarch-x86/config'
p629
asS'bootloaders'
p630
(lp631
S'grub-pc'
p632
aS'extlinux'
p633
aS'lilo'
p634
ass(g107
g192
g109
tp635
(dp636
g112
I01
sg113
(lp637
S'sparc64'
p638
aS'sparc64-smp'
p639
ass(S'base'
g108
tp640
(dp641
S'kernel-arch'
p642
S'powerpc'
p643
sg148
(lp644
g109
ass(g107
g137
g109
tp645
(dp646
g112
I01
sg113
(lp647
S'alpha-generic'
p648
aS'alpha-smp'
p649
aS'alpha-legacy'
p650
ass(S'description'
g66
g67
S'686-pae'
tp651
(dp652
S'parts'
p653
(lp654
S'xen'
p655
ass(g107
g47
g109
tp656
(dp657
g112
I01
sg113
(lp658
S'itanium'
p659
aS'mckinley'
p660
ass(S'description'
g178
tp661
(dp662
S'part-short-tape'
p663
S'IPL from tape'
p664
sS'part-long-tape'
p665
S'This kernel has support to IPL (boot) from a tape.'
p666
sS'part-long-reader'
p667
S'This kernel has support to IPL (boot) from a VM reader or DASD device.'
p668
ss(S'description'
g178
NS's390-tape'
tp669
(dp670
S'hardware'
p671
S'IBM S/390'
p672
sS'parts'
p673
(lp674
S'tape'
p675
ass(g107
g40
g109
tp676
(dp677
g112
I01
sg113
(lp678
S'r4k-ip22'
p679
aS'r5k-ip32'
p680
aS'sb1-bcm91250a'
p681
aS'sb1a-bcm91480b'
p682
aS'4kc-malta'
p683
aS'5kc-malta'
p684
aS'octeon'
p685
ass(S'image'
g416
NS'sparc64-smp'
tp686
(dp687
S'configs'
p688
(lp689
S'sparc/config.sparc64-smp'
p690
ass(S'description'
g108
NS'powerpc64'
tp691
(dp692
S'hardware'
p693
S'64-bit PowerPC'
p694
ss(S'image'
g102
tp695
(dp696
S'suggests'
p697
S'vmelilo, fdutils'
p698
sS'initramfs'
p699
I00
ss(S'description'
g327
NS'sh7751r'
tp700
(dp701
S'hardware'
p702
S'sh7751r'
p703
sS'hardware-long'
p704
S'Renesas SH7751R R2D plus board'
p705
ss(S'description'
g40
NS'sb1-bcm91250a'
tp706
(dp707
S'hardware'
p708
S'BCM91250A'
p709
sS'hardware-long'
p710
S'Broadcom BCM91250A systems (aka SWARM)'
p711
ss(S'description'
g40
NS'octeon'
tp712
(dp713
S'hardware'
p714
S'Octeon'
p715
sS'hardware-long'
p716
S'Cavium Networks Octeon'
p717
ss(S'description'
Ng391
tp718
(dp719
S'part-long-rt'
p720
S'This kernel includes the PREEMPT_RT realtime patch set.'
p721
sS'parts'
p722
(lp723
S'rt'
p724
asS'part-short-rt'
p725
S'PREEMPT_RT'
p726
ss(S'description'
g102
NS'bvme6000'
tp727
(dp728
S'hardware'
p729
S'BVM BVME4000 and BVME6000'
p730
ss(S'image'
g128
NS'ixp4xx'
tp731
(dp732
S'check-size'
p733
S'1441760'
p734
ss(S'image'
g327
tp735
(dp736
S'suggests'
p737
S'fdutils'
p738
ss(S'base'
g5
tp739
(dp740
S'kernel-arch'
p741
S'parisc'
p742
sg148
(lp743
g109
asS'compiler'
p744
S'gcc-4.4'
p745
ss(S'base'
g327
tp746
(dp747
S'kernel-arch'
p748
S'sh'
p749
sg148
(lp750
g109
ass(S'image'
g192
tp751
(dp752
S'suggests'
p753
S'silo, fdutils'
p754
ss(S'description'
tp755
(dp756
S'part-long-up'
p757
S'This kernel is not suitable for SMP (multi-processor,\nmulti-core or hyper-threaded) systems.'
p758
sS'part-long-xen'
p759
S'This kernel also runs on a Xen hypervisor.\nIt supports both privileged (dom0) and unprivileged (domU) operation.'
p760
ss(S'image'
g416
NS'sparc64'
tp761
(dp762
S'configs'
p763
(lp764
S'sparc/config.sparc64'
p765
ass(S'image'
g128
NS'orion5x'
tp766
(dp767
S'check-size'
p768
S'1572792'
p769
sS'recommends'
p770
S'uboot-mkimage'
p771
ss(S'description'
g55
NS'sb1-bcm91250a'
tp772
(dp773
S'hardware'
p774
S'BCM91250A'
p775
sS'hardware-long'
p776
S'Broadcom BCM91250A systems (aka SWARM)'
p777
ss(S'image'
g416
tp778
(dp779
S'suggests'
p780
S'silo, fdutils'
p781
sS'configs'
p782
(lp783
S'sparc/config'
p784
ass(S'description'
g178
NS's390'
tp785
(dp786
S'hardware'
p787
S'IBM S/390'
p788
sS'parts'
p789
(lp790
S'reader'
p791
ass(S'description'
g128
NS'iop32x'
tp792
(dp793
S'hardware'
p794
S'IOP32x'
p795
sS'hardware-long'
p796
S'IOP32x based systems (Thecus N2100, etc)'
p797
ss(S'image'
g192
NS'sparc32'
tp798
(dp799
S'image-postproc'
p800
S'sparc32-image-postproc'
p801
ss(S'description'
g29
NS'powerpc-smp'
tp802
(dp803
S'hardware'
p804
S'multiprocessor 32-bit PowerPC'
p805
ss(S'base'
g29
tp806
(dp807
S'kernel-arch'
p808
S'powerpc'
p809
sg148
(lp810
g109
ass(S'image'
g178
NS's390x-tape'
tp811
(dp812
S'override-localversion'
p813
S's390x'
p814
sS'type'
p815
S'plain-s390-tape'
p816
sS'initramfs'
p817
I00
ss(S'build'
g161
NS'vexpress'
tp818
(dp819
S'image-file'
p820
S'arch/arm/boot/zImage'
p821
ss(S'description'
g128
NS'ixp4xx'
tp822
(dp823
S'hardware'
p824
S'IXP4xx'
p825
sS'hardware-long'
p826
S'IXP4xx based systems (Linksys NSLU2, etc)'
p827
ss(S'description'
g102
NS'mac'
tp828
(dp829
S'hardware'
p830
S'Macintosh'
p831
ss(S'description'
g21
tp832
(dp833
S'part-short-tape'
p834
S'IPL from tape'
p835
sS'part-long-tape'
p836
S'This kernel has support to IPL (boot) from a tape.'
p837
sS'part-long-reader'
p838
S'This kernel has support to IPL (boot) from a VM reader or DASD device.'
p839
ss(S'image'
g161
tp840
(dp841
S'suggests'
p842
S'fdutils'
p843
sS'configs'
p844
(lp845
S'armel/config'
p846
aS'armhf/config'
p847
ass(S'description'
g47
NS'itanium'
tp848
(dp849
S'hardware'
p850
S'Itanium'
p851
ss(S'description'
g161
NS'vexpress'
tp852
(dp853
S'hardware'
p854
S'ARM Ltd. Versatile Express'
p855
sS'hardware-long'
p856
S'ARM Ltd. Versatile Express family of processors'
p857
ss(g107
g102
g109
tp858
(dp859
g112
I01
sg113
(lp860
S'amiga'
p861
aS'atari'
p862
aS'bvme6000'
p863
aS'mac'
p864
aS'mvme147'
p865
aS'mvme16x'
p866
ass(S'description'
g66
NS'486'
tp867
(dp868
S'hardware'
p869
S'older PCs'
p870
sS'parts'
p871
(lp872
S'up'
p873
asS'hardware-long'
p874
S'PCs with a single processor not supporting PAE'
p875
ss(S'description'
g161
NS'omap'
tp876
(dp877
S'hardware'
p878
S'TI OMAP3+'
p879
sS'hardware-long'
p880
S'Texas Instruments OMAP3 or OMAP4 based systems'
p881
ss(S'description'
g128
NS'mv78xx0'
tp882
(dp883
S'hardware'
p884
S'Marvell 78xx0'
p885
sS'hardware-long'
p886
S'Marvell DB-78xx0-BP Development Board'
p887
ss(S'base'
tp888
(dp889
S'arches'
p890
(lp891
S'alpha'
p892
aS'amd64'
p893
aS'armel'
p894
aS'armhf'
p895
aS'hppa'
p896
aS'i386'
p897
aS'ia64'
p898
aS'm68k'
p899
aS'mips'
p900
aS'mipsel'
p901
aS'powerpc'
p902
aS'ppc64'
p903
aS's390'
p904
aS's390x'
p905
aS'sh4'
p906
aS'sparc'
p907
aS'sparc64'
p908
asS'featuresets'
p909
(lp910
S'none'
p911
aS'rt'
p912
asS'compiler'
p913
S'gcc-4.6'
p914
ss(S'description'
g128
NS'versatile'
tp915
(dp916
S'hardware'
p917
S'Versatile'
p918
sS'hardware-long'
p919
S'Versatile systems (PB, AB, Qemu)'
p920
ss(S'build'
g21
NS's390x-tape'
tp921
(dp922
S'modules'
p923
I00
ss(S'description'
g5
NS'parisc-smp'
tp924
(dp925
S'hardware'
p926
S'multiprocessor 32-bit PA-RISC'
p927
ss(S'build'
g161
NS'omap'
tp928
(dp929
S'image-file'
p930
S'arch/arm/boot/zImage'
p931
ss(S'base'
g102
tp932
(dp933
S'kernel-arch'
p934
S'm68k'
p935
sg148
(lp936
g109
asS'cflags'
p937
S'-ffreestanding'
p938
sS'compiler'
p939
S'gcc-4.6'
p940
ss(S'description'
g327
NS'sh7785lcr'
tp941
(dp942
S'hardware'
p943
S'sh7785lcr'
p944
sS'hardware-long'
p945
S'Renesas SH7785 reference board'
p946
ss(S'image'
tp947
(dp948
S'initramfs-generators'
p949
(lp950
S'initramfs-tools'
p951
aS'initramfs-fallback'
p952
asS'type'
p953
S'plain'
p954
ss(S'image'
g108
NS'powerpc64'
tp955
(dp956
S'configs'
p957
(lp958
S'powerpc/config.powerpc64'
p959
ass(S'image'
g66
NS'686-pae'
tp960
(dp961
S'configs'
p962
(lp963
S'kernelarch-x86/config-arch-32'
p964
asS'recommends'
p965
S'libc6-i686'
p966
ss(S'image'
g55
NS'5kc-malta'
tp967
(dp968
S'configs'
p969
(lp970
S'mips/config.5kc-malta'
p971
ass(S'description'
g192
NS'sparc32'
tp972
(dp973
S'hardware'
p974
S'uniprocessor sparc32 (sun4m)'
p975
ss(S'image'
g21
NS's390x'
tp976
(dp977
S'configs'
p978
(lp979
S's390/config.s390x'
p980
ass(g107
g416
g109
tp981
(dp982
g112
I01
sg113
(lp983
S'sparc64'
p984
aS'sparc64-smp'
p985
ass(S'image'
g5
tp986
(dp987
S'suggests'
p988
S'palo'
p989
ss(S'build'
g327
NS'sh7785lcr'
tp990
(dp991
S'image-file'
p992
S'arch/sh/boot/zImage'
p993
ss(S'abi'
tp994
(dp995
S'abiname'
p996
S'3'
ss(S'description'
g178
NS's390x-tape'
tp997
(dp998
S'hardware'
p999
S'IBM zSeries'
p1000
sS'parts'
p1001
(lp1002
S'tape'
p1003
ass(S'description'
g416
NS'sparc64'
tp1004
(dp1005
S'hardware'
p1006
S'uniprocessor 64-bit UltraSPARC'
p1007
ss(S'image'
g21
tp1008
(dp1009
S'configs'
p1010
(lp1011
S's390/config'
p1012
asS'bootloaders'
p1013
(lp1014
S's390-tools'
p1015
ass(S'build'
g327
NS'sh7751r'
tp1016
(dp1017
S'image-file'
p1018
S'arch/sh/boot/zImage'
p1019
ss(S'description'
g102
NS'amiga'
tp1020
(dp1021
S'hardware'
p1022
S'Amiga'
p1023
ss(S'image'
g128
NS'iop32x'
tp1024
(dp1025
S'check-size'
p1026
S'1441784'
p1027
sstRp1028
.