ccopy_reg
_reconstructor
p1
(cdebian_linux.config
ConfigCore
p2
c__builtin__
dict
p3
(dp4
(S'image'
S'amd64'
p5
tp6
(dp7
S'configs'
p8
(lp9
S'kernelarch-x86/config'
p10
asS'bootloaders'
p11
(lp12
S'grub-pc'
p13
aS'extlinux'
p14
aS'lilo'
p15
ass(S'base'
p16
g5
S'none'
p17
tp18
(dp19
S'implicit-flavour'
p20
I01
sS'flavours'
p21
(lp22
S'amd64'
p23
ass(S'image'
S'sparc64'
p24
NS'sparc64-smp'
tp25
(dp26
S'configs'
p27
(lp28
S'sparc/config.sparc64-smp'
p29
ass(S'image'
S'ia64'
p30
tp31
(dp32
S'suggests'
p33
S'fdutils'
p34
sS'bootloaders'
p35
(lp36
S'elilo'
p37
ass(S'description'
S'mipsel'
p38
NS'r5k-cobalt'
tp39
(dp40
S'hardware'
p41
S'Cobalt'
p42
sS'hardware-long'
p43
S'Cobalt systems (Qube, RaQ, Qube2, RaQ2)'
p44
ss(S'description'
S'mips'
p45
NS'octeon'
tp46
(dp47
S'hardware'
p48
S'Octeon'
p49
sS'hardware-long'
p50
S'Cavium Networks Octeon'
p51
ss(S'version'
p52
tp53
(dp54
S'abiname'
p55
S'3.2.0-1'
p56
sS'source'
p57
V3.2.1-2
p58
ss(S'base'
S'hppa'
p59
NS'parisc64-smp'
tp60
(dp61
S'override-host-type'
p62
S'hppa64-linux-gnu'
p63
sS'cflags'
p64
S'-fno-cse-follow-jumps'
p65
ss(S'description'
S'm68k'
p66
NS'atari'
tp67
(dp68
S'hardware'
p69
S'Atari'
p70
ss(S'description'
g66
NS'mvme16x'
tp71
(dp72
S'hardware'
p73
S'Motorola MVME162/6/7, MVME172/7'
p74
ss(g16
S'ppc64'
p75
g17
tp76
(dp77
g20
I01
sg21
(lp78
S'powerpc64'
p79
ass(S'image'
S'armel'
p80
NS'iop32x'
tp81
(dp82
S'check-size'
p83
S'1441784'
p84
ss(S'image'
S'i386'
p85
NS'686-pae'
tp86
(dp87
S'configs'
p88
(lp89
S'kernelarch-x86/config-arch-32'
p90
asS'recommends'
p91
S'libc6-i686'
p92
ss(S'build'
S'armhf'
p93
NS'mx5'
tp94
(dp95
S'image-file'
p96
S'arch/arm/boot/zImage'
p97
ss(S'description'
S'sparc'
p98
NS'sparc32'
tp99
(dp100
S'hardware'
p101
S'uniprocessor sparc32 (sun4m)'
p102
ss(S'base'
S'alpha'
p103
tp104
(dp105
S'kernel-arch'
p106
S'alpha'
p107
sS'featuresets'
p108
(lp109
g17
asS'compiler'
p110
S'gcc-4.4'
p111
ss(S'image'
g85
NS'amd64'
tp112
(dp113
S'configs'
p114
(lp115
S'kernelarch-x86/config-arch-64'
p116
asS'recommends'
p117
S'libc6-i686'
p118
ss(S'description'
g66
NS'amiga'
tp119
(dp120
S'hardware'
p121
S'Amiga'
p122
ss(g16
g93
g17
tp123
(dp124
g20
I01
sg21
(lp125
S'mx5'
p126
aS'omap'
p127
ass(S'description'
g85
NS'686-pae'
tp128
(dp129
S'hardware'
p130
S'modern PCs'
p131
sS'parts'
p132
(lp133
S'pae'
p134
aS'xen'
p135
asS'hardware-long'
p136
S'PCs with one or more processors supporting PAE'
p137
ss(S'description'
g66
NS'mvme147'
tp138
(dp139
S'hardware'
p140
S'Motorola MVME147'
p141
ss(S'image'
g24
NS'sparc64'
tp142
(dp143
S'configs'
p144
(lp145
S'sparc/config.sparc64'
p146
ass(S'abi'
NS'rt'
p147
tp148
(dp149
S'ignore-changes'
p150
(lp151
S'*'
ass(S'build'
S's390x'
p152
NS's390x-tape'
tp153
(dp154
S'modules'
p155
I00
ss(S'build'
g93
NS'omap'
tp156
(dp157
S'image-file'
p158
S'arch/arm/boot/zImage'
p159
ss(g16
S'powerpc'
p160
g17
tp161
(dp162
g20
I01
sg21
(lp163
S'powerpc'
p164
aS'powerpc-smp'
p165
aS'powerpc64'
p166
ass(S'image'
g160
tp167
(dp168
S'suggests'
p169
S'mkvmlinuz'
p170
ss(S'description'
S'sh4'
p171
NS'sh7751r'
tp172
(dp173
S'hardware'
p174
S'sh7751r'
p175
sS'hardware-long'
p176
S'Renesas SH7751R R2D plus board'
p177
ss(S'base'
g5
S'rt'
p178
tp179
(dp180
S'flavours'
p181
(lp182
S'amd64'
p183
ass(S'description'
g75
NS'powerpc64'
tp184
(dp185
S'hardware'
p186
S'64-bit PowerPC'
p187
ss(S'description'
g45
NS'r5k-ip32'
tp188
(dp189
S'hardware'
p190
S'SGI IP32'
p191
sS'hardware-long'
p192
S'SGI IP32 systems (O2)'
p193
ss(S'base'
g85
tp194
(dp195
S'kernel-arch'
p196
S'x86'
p197
sg108
(lp198
g17
ass(S'base'
g38
tp199
(dp200
S'kernel-arch'
p201
S'mips'
p202
sg108
(lp203
g17
ass(g16
g59
g17
tp204
(dp205
g20
I01
sg21
(lp206
S'parisc'
p207
aS'parisc-smp'
p208
aS'parisc64'
p209
aS'parisc64-smp'
p210
ass(S'description'
g171
NS'sh7785lcr'
tp211
(dp212
S'hardware'
p213
S'sh7785lcr'
p214
sS'hardware-long'
p215
S'Renesas SH7785 reference board'
p216
ss(S'description'
g38
NS'sb1-bcm91250a'
tp217
(dp218
S'hardware'
p219
S'BCM91250A'
p220
sS'hardware-long'
p221
S'Broadcom BCM91250A systems (aka SWARM)'
p222
ss(g16
g38
g17
tp223
(dp224
g20
I01
sg21
(lp225
S'r5k-cobalt'
p226
aS'sb1-bcm91250a'
p227
aS'sb1a-bcm91480b'
p228
aS'4kc-malta'
p229
aS'5kc-malta'
p230
aS'loongson-2f'
p231
ass(S'image'
g38
NS'sb1a-bcm91480b'
tp232
(dp233
S'configs'
p234
(lp235
S'mips/config.sb1a-bcm91480b'
p236
ass(S'relations'
tp237
(dp238
S'initramfs-fallback'
p239
S'linux-initramfs-tool'
p240
sS'lilo'
p241
S'lilo (>= 22.8-8.2~)'
p242
sS'gcc-4.6'
p243
S'gcc-4.6'
p244
sS'gcc-4.5'
p245
S'gcc-4.5'
p246
sS'gcc-4.4'
p247
S'gcc-4.4'
p248
sS'elilo'
p249
S'elilo (>= 3.12-3.1~)'
p250
sS's390-tools'
p251
S's390-tools (>= 1.8.3-2~)'
p252
sS'initramfs-tools'
p253
S'initramfs-tools (>= 0.99~)'
p254
ss(S'image'
g85
NS'486'
tp255
(dp256
S'configs'
p257
(lp258
S'kernelarch-x86/config-arch-32'
p259
ass(S'build'
g80
NS'orion5x'
tp260
(dp261
S'image-file'
p262
S'arch/arm/boot/zImage'
p263
ss(g16
g171
g17
tp264
(dp265
g20
I01
sg21
(lp266
S'sh7751r'
p267
aS'sh7785lcr'
p268
ass(S'image'
g103
tp269
(dp270
S'suggests'
p271
S'aboot, fdutils'
p272
ss(S'description'
g103
NS'alpha-generic'
tp273
(dp274
S'hardware'
p275
S'Alpha'
p276
sS'hardware-long'
p277
S'DEC Alpha systems with extended kernel start address (Wildfire, Titan, Marvel)'
p278
ss(S'base'
g80
tp279
(dp280
S'kernel-arch'
p281
S'arm'
p282
sg108
(lp283
g17
ass(S'description'
g85
NS'amd64'
tp284
(dp285
S'hardware'
p286
S'64-bit PCs'
p287
sS'parts'
p288
(lp289
S'xen'
p290
asS'hardware-long'
p291
S'PCs with AMD64 or Intel 64 processors'
p292
ss(S'base'
g98
tp293
(dp294
S'kernel-arch'
p295
S'sparc'
p296
sg108
(lp297
g17
ass(g16
S's390'
p298
g17
tp299
(dp300
g20
I01
sg21
(lp301
S's390x'
p302
aS's390x-tape'
p303
ass(S'description'
g30
NS'mckinley'
tp304
(dp305
S'hardware'
p306
S'Itanium II'
p307
ss(g16
g152
g17
tp308
(dp309
g20
I01
sg21
(lp310
S's390x'
p311
aS's390x-tape'
p312
ass(S'base'
g45
tp313
(dp314
S'kernel-arch'
p315
S'mips'
p316
sg108
(lp317
g17
ass(S'build'
g5
tp318
(dp319
S'debug-info'
p320
I01
ss(S'description'
g30
NS'itanium'
tp321
(dp322
S'hardware'
p323
S'Itanium'
p324
ss(S'description'
g98
NS'sparc64'
tp325
(dp326
S'hardware'
p327
S'uniprocessor 64-bit UltraSPARC'
p328
ss(S'description'
g66
NS'sun3'
tp329
(dp330
S'hardware'
p331
S'sun3'
p332
ss(S'image'
g298
NS's390-tape'
tp333
(dp334
S'override-localversion'
p335
S's390'
p336
sS'type'
p337
S'plain-s390-tape'
p338
sS'initramfs'
p339
I00
ss(S'image'
g80
NS'ixp4xx'
tp340
(dp341
S'check-size'
p342
S'1441760'
p343
ss(S'base'
g5
tp344
(dp345
S'kernel-arch'
p346
S'x86'
p347
sS'featuresets'
p348
(lp349
g17
ag178
ass(S'base'
g30
tp350
(dp351
S'kernel-arch'
p352
S'ia64'
p353
sg108
(lp354
g17
ass(S'description'
g38
NS'sb1a-bcm91480b'
tp355
(dp356
S'hardware'
p357
S'BCM91480B'
p358
sS'hardware-long'
p359
S'Broadcom BCM91480B systems (aka BigSur)'
p360
ss(S'image'
g171
NS'sh7785lcr'
tp361
(dp362
S'check-size'
p363
S'4194304'
p364
sS'recommends'
p365
S'uboot-mkimage'
p366
ss(S'build'
g298
NS's390x-tape'
tp367
(dp368
S'modules'
p369
I00
ss(S'base'
g298
tp370
(dp371
S'kernel-arch'
p372
S's390'
p373
sg108
(lp374
g17
ass(g16
g80
g17
tp375
(dp376
g20
I01
sg21
(lp377
S'iop32x'
p378
aS'ixp4xx'
p379
aS'kirkwood'
p380
aS'orion5x'
p381
aS'versatile'
p382
ass(S'image'
g93
NS'omap'
tp383
(dp384
S'recommends'
p385
S'uboot-mkimage'
p386
ss(S'image'
tp387
(dp388
S'initramfs-generators'
p389
(lp390
S'initramfs-tools'
p391
aS'initramfs-fallback'
p392
asS'type'
p393
S'plain'
p394
ss(S'description'
g298
NS's390x'
tp395
(dp396
S'hardware'
p397
S'IBM zSeries'
p398
sS'parts'
p399
(lp400
S'reader'
p401
ass(S'description'
g59
NS'parisc-smp'
tp402
(dp403
S'hardware'
p404
S'multiprocessor 32-bit PA-RISC'
p405
ss(S'description'
g85
tp406
(dp407
S'part-long-pae'
p408
S'This kernel requires PAE (Physical Address Extension).\nThis feature is supported by the Intel Pentium Pro/II/III/4/4M/D, Xeon,\nCore and Atom; AMD Geode NX, Athlon (K7), Duron, Opteron, Sempron,\nTurion or Phenom; Transmeta Efficeon; VIA C7; and some other processors.'
p409
ss(S'description'
g45
NS'r4k-ip22'
tp410
(dp411
S'hardware'
p412
S'SGI IP22'
p413
sS'hardware-long'
p414
S'SGI IP22 systems (Indy, Indigo2)'
p415
ss(g16
g85
g17
tp416
(dp417
g20
I01
sg21
(lp418
S'486'
p419
aS'686-pae'
p420
aS'amd64'
p421
ass(S'image'
g80
tp422
(dp423
S'suggests'
p424
S'fdutils'
p425
ss(S'xen'
g5
NS'amd64'
tp426
(dp427
S'flavours'
p428
(lp429
S'amd64'
p430
asS'dom0-support'
p431
I01
ss(S'description'
g66
NS'bvme6000'
tp432
(dp433
S'hardware'
p434
S'BVM BVME4000 and BVME6000'
p435
ss(S'image'
g59
tp436
(dp437
S'suggests'
p438
S'palo'
p439
ss(S'relations'
g59
tp440
(dp441
S'gcc-4.4'
p442
S'gcc-4.4, binutils-hppa64, gcc-4.4-hppa64'
p443
ss(S'description'
g59
NS'parisc'
tp444
(dp445
S'hardware'
p446
S'32-bit PA-RISC'
p447
ss(S'description'
g160
NS'powerpc64'
tp448
(dp449
S'hardware'
p450
S'64-bit PowerPC'
p451
ss(S'description'
g66
NS'q40'
tp452
(dp453
S'hardware'
p454
S'Q40 and Q60'
p455
ss(S'image'
g75
NS'powerpc64'
tp456
(dp457
S'configs'
p458
(lp459
S'powerpc/config.powerpc64'
p460
ass(S'description'
g298
NS's390'
tp461
(dp462
S'hardware'
p463
S'IBM S/390'
p464
sS'parts'
p465
(lp466
S'reader'
p467
ass(S'description'
g59
NS'parisc64'
tp468
(dp469
S'hardware'
p470
S'64-bit PA-RISC'
p471
ss(S'image'
g45
tp472
(dp473
S'initramfs'
p474
I00
ss(S'base'
g24
tp475
(dp476
S'kernel-arch'
p477
S'sparc'
p478
sg108
(lp479
g17
ass(S'description'
g45
NS'sb1a-bcm91480b'
tp480
(dp481
S'hardware'
p482
S'BCM91480B'
p483
sS'hardware-long'
p484
S'Broadcom BCM91480B systems (aka BigSur)'
p485
ss(S'base'
g152
tp486
(dp487
S'kernel-arch'
p488
S's390'
p489
sg108
(lp490
g17
ass(S'description'
g298
NS's390x-tape'
tp491
(dp492
S'hardware'
p493
S'IBM zSeries'
p494
sS'parts'
p495
(lp496
S'tape'
p497
ass(S'base'
g59
NS'parisc64'
tp498
(dp499
S'override-host-type'
p500
S'hppa64-linux-gnu'
p501
sS'cflags'
p502
S'-fno-cse-follow-jumps'
p503
ss(S'image'
g75
tp504
(dp505
S'suggests'
p506
S'mkvmlinuz'
p507
sS'configs'
p508
(lp509
S'powerpc/config'
p510
ass(S'xen'
g85
NS'686-pae'
tp511
(dp512
S'flavours'
p513
(lp514
S'i386'
p515
aS'amd64'
p516
asS'dom0-support'
p517
I01
ss(S'image'
g85
tp518
(dp519
S'configs'
p520
(lp521
S'kernelarch-x86/config'
p522
asS'bootloaders'
p523
(lp524
S'grub-pc'
p525
aS'extlinux'
p526
aS'lilo'
p527
ass(S'description'
g80
NS'iop32x'
tp528
(dp529
S'hardware'
p530
S'IOP32x'
p531
sS'hardware-long'
p532
S'IOP32x based systems (Thecus N2100, etc)'
p533
ss(g16
g98
g17
tp534
(dp535
g20
I01
sg21
(lp536
S'sparc64'
p537
aS'sparc64-smp'
p538
ass(S'description'
g85
NS'486'
tp539
(dp540
S'hardware'
p541
S'older PCs'
p542
sS'parts'
p543
(lp544
S'up'
p545
asS'hardware-long'
p546
S'PCs with a single processor not supporting PAE'
p547
ss(g16
g45
g17
tp548
(dp549
g20
I01
sg21
(lp550
S'r4k-ip22'
p551
aS'r5k-ip32'
p552
aS'sb1-bcm91250a'
p553
aS'sb1a-bcm91480b'
p554
aS'4kc-malta'
p555
aS'5kc-malta'
p556
aS'octeon'
p557
ass(g16
g30
g17
tp558
(dp559
g20
I01
sg21
(lp560
S'itanium'
p561
aS'mckinley'
p562
ass(S'base'
g75
tp563
(dp564
S'kernel-arch'
p565
S'powerpc'
p566
sg108
(lp567
g17
ass(S'description'
g80
NS'ixp4xx'
tp568
(dp569
S'hardware'
p570
S'IXP4xx'
p571
sS'hardware-long'
p572
S'IXP4xx based systems (Linksys NSLU2, etc)'
p573
ss(S'description'
g103
NS'alpha-smp'
tp574
(dp575
S'hardware'
p576
S'Alpha SMP'
p577
sS'hardware-long'
p578
S'DEC Alpha SMP systems with extended kernel start address (Wildfire, Titan, Marvel)'
p579
ss(S'description'
g93
NS'mx5'
tp580
(dp581
S'hardware'
p582
S'Freescale i.MX51'
p583
sS'hardware-long'
p584
S'Support for Freescale i.MX51 family of processors'
p585
ss(S'xen'
g85
NS'amd64'
tp586
(dp587
S'flavours'
p588
(lp589
S'amd64'
p590
asS'dom0-support'
p591
I01
ss(S'build'
g80
NS'iop32x'
tp592
(dp593
S'image-file'
p594
S'arch/arm/boot/zImage'
p595
ss(S'description'
g24
NS'sparc64'
tp596
(dp597
S'hardware'
p598
S'uniprocessor 64-bit UltraSPARC'
p599
ss(S'build'
g80
NS'ixp4xx'
tp600
(dp601
S'image-file'
p602
S'arch/arm/boot/zImage'
p603
ss(S'description'
g152
NS's390x'
tp604
(dp605
S'hardware'
p606
S'IBM zSeries'
p607
sS'parts'
p608
(lp609
S'reader'
p610
ass(S'image'
g66
tp611
(dp612
S'suggests'
p613
S'vmelilo, fdutils'
p614
sS'initramfs'
p615
I00
ss(S'image'
g38
NS'5kc-malta'
tp616
(dp617
S'configs'
p618
(lp619
S'mips/config.5kc-malta'
p620
ass(S'description'
g298
tp621
(dp622
S'part-short-tape'
p623
S'IPL from tape'
p624
sS'part-long-tape'
p625
S'This kernel has support to IPL (boot) from a tape.'
p626
sS'part-long-reader'
p627
S'This kernel has support to IPL (boot) from a VM reader or DASD device.'
p628
ss(S'base'
g93
tp629
(dp630
S'kernel-arch'
p631
S'arm'
p632
sg108
(lp633
g17
ass(S'image'
g38
tp634
(dp635
S'initramfs'
p636
I00
ss(S'description'
g66
NS'mac'
tp637
(dp638
S'hardware'
p639
S'Macintosh'
p640
ss(S'image'
g171
tp641
(dp642
S'suggests'
p643
S'fdutils'
p644
ss(S'base'
g59
tp645
(dp646
S'kernel-arch'
p647
S'parisc'
p648
sg108
(lp649
g17
asS'compiler'
p650
S'gcc-4.4'
p651
ss(S'base'
g171
tp652
(dp653
S'kernel-arch'
p654
S'sh'
p655
sg108
(lp656
g17
ass(S'image'
g298
NS's390x-tape'
tp657
(dp658
S'override-localversion'
p659
S's390x'
p660
sS'type'
p661
S'plain-s390-tape'
p662
sS'initramfs'
p663
I00
ss(S'image'
g98
tp664
(dp665
S'suggests'
p666
S'silo, fdutils'
p667
ss(S'description'
g38
NS'4kc-malta'
tp668
(dp669
S'hardware'
p670
S'MIPS Malta'
p671
sS'hardware-long'
p672
S'MIPS Malta boards'
p673
ss(S'image'
g152
NS's390x'
tp674
(dp675
S'configs'
p676
(lp677
S's390/config.s390x'
p678
ass(S'description'
g59
NS'parisc64-smp'
tp679
(dp680
S'hardware'
p681
S'multiprocessor 64-bit PA-RISC'
p682
ss(S'image'
g98
NS'sparc32'
tp683
(dp684
S'image-postproc'
p685
S'sparc32-image-postproc'
p686
ss(S'description'
g5
NS'amd64'
tp687
(dp688
S'hardware'
p689
S'64-bit PCs'
p690
sS'parts'
p691
(lp692
S'xen'
p693
asS'hardware-long'
p694
S'PCs with AMD64 or Intel 64 processors'
p695
ss(S'description'
g80
NS'orion5x'
tp696
(dp697
S'hardware'
p698
S'Marvell Orion'
p699
sS'hardware-long'
p700
S'Marvell Orion 5181, 5182 and 5281 based systems (QNAP TS-109/TS-209, etc)'
p701
ss(S'featureset-rt'
NS''
tp702
(dp703
S'enabled'
p704
S'true'
p705
ss(S'build'
g298
NS's390-tape'
tp706
(dp707
S'modules'
p708
I00
ss(S'image'
g38
NS'sb1-bcm91250a'
tp709
(dp710
S'configs'
p711
(lp712
S'mips/config.sb1-bcm91250a'
p713
ass(S'image'
g24
tp714
(dp715
S'suggests'
p716
S'silo, fdutils'
p717
sS'configs'
p718
(lp719
S'sparc/config'
p720
ass(S'base'
g160
tp721
(dp722
S'kernel-arch'
p723
S'powerpc'
p724
sg108
(lp725
g17
ass(S'description'
g45
NS'sb1-bcm91250a'
tp726
(dp727
S'hardware'
p728
S'BCM91250A'
p729
sS'hardware-long'
p730
S'Broadcom BCM91250A systems (aka SWARM)'
p731
ss(S'description'
g160
NS'powerpc'
tp732
(dp733
S'hardware'
p734
S'uniprocessor 32-bit PowerPC'
p735
ss(S'description'
Ng147
tp736
(dp737
S'part-long-rt'
p738
S'This kernel includes the PREEMPT_RT realtime patch set.'
p739
sS'parts'
p740
(lp741
S'rt'
p742
asS'part-short-rt'
p743
S'PREEMPT_RT'
p744
ss(S'description'
g45
NS'5kc-malta'
tp745
(dp746
S'hardware'
p747
S'MIPS Malta (64-bit)'
p748
sS'hardware-long'
p749
S'MIPS Malta boards (64-bit)'
p750
ss(S'build'
g80
NS'kirkwood'
tp751
(dp752
S'image-file'
p753
S'arch/arm/boot/zImage'
p754
ss(S'description'
g38
NS'loongson-2f'
tp755
(dp756
S'hardware'
p757
S'Loongson 2F'
p758
sS'hardware-long'
p759
S'Lemote Loongson 2F systems'
p760
ss(S'description'
g24
NS'sparc64-smp'
tp761
(dp762
S'hardware'
p763
S'multiprocessor 64-bit UltraSPARC'
p764
ss(S'description'
g160
NS'powerpc-smp'
tp765
(dp766
S'hardware'
p767
S'multiprocessor 32-bit PowerPC'
p768
ss(S'description'
g152
tp769
(dp770
S'part-short-tape'
p771
S'IPL from tape'
p772
sS'part-long-tape'
p773
S'This kernel has support to IPL (boot) from a tape.'
p774
sS'part-long-reader'
p775
S'This kernel has support to IPL (boot) from a VM reader or DASD device.'
p776
ss(S'image'
g93
tp777
(dp778
S'suggests'
p779
S'fdutils'
p780
sS'configs'
p781
(lp782
S'armel/config'
p783
aS'armhf/config'
p784
ass(S'abi'
tp785
(dp786
S'abiname'
p787
S'1'
ss(S'description'
g98
NS'sparc64-smp'
tp788
(dp789
S'hardware'
p790
S'multiprocessor 64-bit UltraSPARC'
p791
ss(S'image'
g152
NS's390x-tape'
tp792
(dp793
S'configs'
p794
(lp795
S's390/config.s390x-tape'
p796
asS'override-localversion'
p797
S's390x'
p798
sS'type'
p799
S'plain-s390-tape'
p800
sS'initramfs'
p801
I00
ss(S'description'
g80
NS'versatile'
tp802
(dp803
S'hardware'
p804
S'Versatile'
p805
sS'hardware-long'
p806
S'Versatile systems (PB, AB, Qemu)'
p807
ss(g16
g66
g17
tp808
(dp809
g20
I01
sg21
(lp810
S'amiga'
p811
aS'atari'
p812
aS'bvme6000'
p813
aS'mac'
p814
aS'mvme147'
p815
aS'mvme16x'
p816
ass(S'description'
g93
NS'omap'
tp817
(dp818
S'hardware'
p819
S'TI OMAP3+'
p820
sS'hardware-long'
p821
S'Texas Instruments OMAP3 or OMAP4 based systems'
p822
ss(S'description'
g66
NS'hp'
tp823
(dp824
S'hardware'
p825
S'HP'
p826
ss(S'base'
tp827
(dp828
S'arches'
p829
(lp830
S'alpha'
p831
aS'amd64'
p832
aS'armel'
p833
aS'armhf'
p834
aS'hppa'
p835
aS'i386'
p836
aS'ia64'
p837
aS'm68k'
p838
aS'mips'
p839
aS'mipsel'
p840
aS'powerpc'
p841
aS'ppc64'
p842
aS's390'
p843
aS's390x'
p844
aS'sh4'
p845
aS'sparc'
p846
aS'sparc64'
p847
asS'featuresets'
p848
(lp849
S'none'
p850
aS'rt'
p851
asS'compiler'
p852
S'gcc-4.6'
p853
ss(S'image'
g80
NS'orion5x'
tp854
(dp855
S'check-size'
p856
S'1572792'
p857
sS'recommends'
p858
S'uboot-mkimage'
p859
ss(S'build'
g85
NS'686-pae'
tp860
(dp861
S'debug-info'
p862
I01
ss(S'image'
g298
tp863
(dp864
S'bootloaders'
p865
(lp866
S's390-tools'
p867
ass(S'image'
g160
NS'powerpc-smp'
tp868
(dp869
S'configs'
p870
(lp871
S'powerpc/config.powerpc'
p872
aS'powerpc/config.powerpc-smp'
p873
ass(S'description'
g45
NS'4kc-malta'
tp874
(dp875
S'hardware'
p876
S'MIPS Malta'
p877
sS'hardware-long'
p878
S'MIPS Malta boards'
p879
ss(S'description'
g103
NS'alpha-legacy'
tp880
(dp881
S'hardware'
p882
S'Alpha Legacy'
p883
sS'hardware-long'
p884
S'DEC Alpha systems with legacy kernel start address'
p885
ss(S'image'
g80
NS'kirkwood'
tp886
(dp887
S'check-size'
p888
S'2097080'
p889
sS'recommends'
p890
S'uboot-mkimage'
p891
ss(S'description'
tp892
(dp893
S'part-long-up'
p894
S'This kernel is not suitable for SMP (multi-processor,\nmulti-core or hyper-threaded) systems.'
p895
sS'part-long-xen'
p896
S'This kernel also runs on a Xen hypervisor.\nIt supports both privileged (dom0) and unprivileged (domU) operation.'
p897
ss(S'base'
g66
tp898
(dp899
S'kernel-arch'
p900
S'm68k'
p901
sg108
(lp902
g17
asS'compiler'
p903
S'gcc-4.4'
p904
ss(S'description'
g298
NS's390-tape'
tp905
(dp906
S'hardware'
p907
S'IBM S/390'
p908
sS'parts'
p909
(lp910
S'tape'
p911
ass(g16
g24
g17
tp912
(dp913
g20
I01
sg21
(lp914
S'sparc64'
p915
aS'sparc64-smp'
p916
ass(S'image'
g38
NS'4kc-malta'
tp917
(dp918
S'configs'
p919
(lp920
S'mips/config.4kc-malta'
p921
ass(S'description'
g80
NS'kirkwood'
tp922
(dp923
S'hardware'
p924
S'Marvell Kirkwood'
p925
sS'hardware-long'
p926
S'Marvell Kirkwood based systems (SheevaPlug, QNAP TS-119/TS-219, etc)'
p927
ss(S'build'
g171
NS'sh7751r'
tp928
(dp929
S'image-file'
p930
S'arch/sh/boot/zImage'
p931
ss(S'image'
g152
tp932
(dp933
S'configs'
p934
(lp935
S's390/config'
p936
asS'bootloaders'
p937
(lp938
S's390-tools'
p939
ass(g16
g103
g17
tp940
(dp941
g20
I01
sg21
(lp942
S'alpha-generic'
p943
aS'alpha-smp'
p944
aS'alpha-legacy'
p945
ass(S'image'
g5
NS'amd64'
tp946
(dp947
S'configs'
p948
(lp949
S'kernelarch-x86/config-arch-64'
p950
ass(S'description'
g152
NS's390x-tape'
tp951
(dp952
S'hardware'
p953
S'IBM zSeries'
p954
sS'parts'
p955
(lp956
S'tape'
p957
ass(S'description'
g38
NS'5kc-malta'
tp958
(dp959
S'hardware'
p960
S'MIPS Malta (64-bit)'
p961
sS'hardware-long'
p962
S'MIPS Malta boards (64-bit)'
p963
ss(S'build'
g171
NS'sh7785lcr'
tp964
(dp965
S'image-file'
p966
S'arch/sh/boot/zImage'
p967
sstRp968
.