ccopy_reg
_reconstructor
p1
(cdebian_linux.config
ConfigCore
p2
c__builtin__
dict
p3
(dp4
(S'base'
S'hppa'
p5
NS'parisc64'
tp6
(dp7
S'override-host-type'
p8
S'hppa64-linux-gnu'
p9
sS'cflags'
p10
S'-fno-cse-follow-jumps'
p11
ss(S'image'
S'amd64'
p12
tp13
(dp14
S'configs'
p15
(lp16
S'kernelarch-x86/config'
p17
asS'bootloaders'
p18
(lp19
S'grub-pc'
p20
aS'extlinux'
p21
aS'lilo'
p22
ass(S'description'
S's390x'
p23
NS's390x'
tp24
(dp25
S'hardware'
p26
S'IBM zSeries'
p27
sS'parts'
p28
(lp29
S'reader'
p30
ass(S'base'
p31
g12
S'none'
p32
tp33
(dp34
S'implicit-flavour'
p35
I01
sS'flavours'
p36
(lp37
S'amd64'
p38
ass(S'abi'
NS'rt'
p39
tp40
(dp41
S'ignore-changes'
p42
(lp43
S'*'
ass(S'featureset-rt'
NS''
tp44
(dp45
S'enabled'
p46
S'true'
p47
ss(S'image'
S'ia64'
p48
tp49
(dp50
S'suggests'
p51
S'fdutils'
p52
sS'bootloaders'
p53
(lp54
S'elilo'
p55
ass(S'description'
S'i386'
p56
NS'amd64'
tp57
(dp58
S'hardware'
p59
S'64-bit PCs'
p60
sS'parts'
p61
(lp62
S'xen'
p63
asS'hardware-long'
p64
S'PCs with AMD64 or Intel 64 processors'
p65
ss(S'build'
S'armel'
p66
NS'kirkwood'
tp67
(dp68
S'image-file'
p69
S'arch/arm/boot/zImage'
p70
ss(S'image'
S'sparc'
p71
NS'sparc32'
tp72
(dp73
S'image-postproc'
p74
S'sparc32-image-postproc'
p75
ss(g31
S'ppc64'
p76
g32
tp77
(dp78
g35
I01
sg36
(lp79
S'powerpc64'
p80
ass(S'description'
g5
NS'parisc64'
tp81
(dp82
S'hardware'
p83
S'64-bit PA-RISC'
p84
ss(S'base'
S'alpha'
p85
tp86
(dp87
S'kernel-arch'
p88
S'alpha'
p89
sS'featuresets'
p90
(lp91
g32
asS'compiler'
p92
S'gcc-4.5'
p93
ss(S'description'
S'mipsel'
p94
NS'sb1-bcm91250a'
tp95
(dp96
S'hardware'
p97
S'BCM91250A'
p98
sS'hardware-long'
p99
S'Broadcom BCM91250A systems (aka SWARM)'
p100
ss(S'base'
g56
tp101
(dp102
S'kernel-arch'
p103
S'x86'
p104
sg90
(lp105
g32
ass(S'description'
g5
NS'parisc'
tp106
(dp107
S'hardware'
p108
S'32-bit PA-RISC'
p109
ss(S'description'
g12
NS'amd64'
tp110
(dp111
S'hardware'
p112
S'64-bit PCs'
p113
sS'parts'
p114
(lp115
S'xen'
p116
asS'hardware-long'
p117
S'PCs with AMD64 or Intel 64 processors'
p118
ss(g31
S'armhf'
p119
g32
tp120
(dp121
g35
I01
sg36
(lp122
S'mx5'
p123
aS'omap'
p124
ass(S'image'
g56
NS'amd64'
tp125
(dp126
S'configs'
p127
(lp128
S'kernelarch-x86/config-arch-64'
p129
asS'recommends'
p130
S'libc6-i686'
p131
ss(S'description'
g85
NS'alpha-generic'
tp132
(dp133
S'hardware'
p134
S'Alpha'
p135
sS'hardware-long'
p136
S'DEC Alpha systems with extended kernel start address (Wildfire, Titan, Marvel)'
p137
ss(g31
S'powerpc'
p138
g32
tp139
(dp140
g35
I01
sg36
(lp141
S'powerpc'
p142
aS'powerpc-smp'
p143
aS'powerpc64'
p144
ass(S'description'
S'm68k'
p145
NS'amiga'
tp146
(dp147
S'hardware'
p148
S'Amiga'
p149
ss(S'description'
S'mips'
p150
NS'sb1-bcm91250a'
tp151
(dp152
S'hardware'
p153
S'BCM91250A'
p154
sS'hardware-long'
p155
S'Broadcom BCM91250A systems (aka SWARM)'
p156
ss(S'image'
g138
tp157
(dp158
S'suggests'
p159
S'mkvmlinuz'
p160
ss(S'description'
g71
NS'sparc32'
tp161
(dp162
S'hardware'
p163
S'uniprocessor sparc32 (sun4m)'
p164
ss(S'description'
g71
NS'sparc64-smp'
tp165
(dp166
S'hardware'
p167
S'multiprocessor 64-bit UltraSPARC'
p168
ss(S'base'
g12
S'rt'
p169
tp170
(dp171
S'flavours'
p172
(lp173
S'amd64'
p174
ass(S'build'
S'sh4'
p175
NS'sh7751r'
tp176
(dp177
S'image-file'
p178
S'arch/sh/boot/zImage'
p179
ss(S'description'
g94
NS'5kc-malta'
tp180
(dp181
S'hardware'
p182
S'MIPS Malta (64-bit)'
p183
sS'hardware-long'
p184
S'MIPS Malta boards (64-bit)'
p185
ss(S'base'
g94
tp186
(dp187
S'kernel-arch'
p188
S'mips'
p189
sg90
(lp190
g32
ass(S'image'
g94
NS'5kc-malta'
tp191
(dp192
S'configs'
p193
(lp194
S'mips/config.5kc-malta'
p195
ass(S'image'
g23
NS's390x'
tp196
(dp197
S'configs'
p198
(lp199
S's390/config.s390x'
p200
ass(S'description'
S's390'
p201
NS's390-tape'
tp202
(dp203
S'hardware'
p204
S'IBM S/390'
p205
sS'parts'
p206
(lp207
S'tape'
p208
ass(S'build'
g66
NS'ixp4xx'
tp209
(dp210
S'image-file'
p211
S'arch/arm/boot/zImage'
p212
ss(g31
g94
g32
tp213
(dp214
g35
I01
sg36
(lp215
S'r5k-cobalt'
p216
aS'sb1-bcm91250a'
p217
aS'sb1a-bcm91480b'
p218
aS'4kc-malta'
p219
aS'5kc-malta'
p220
aS'loongson-2f'
p221
ass(S'description'
g150
NS'sb1a-bcm91480b'
tp222
(dp223
S'hardware'
p224
S'BCM91480B'
p225
sS'hardware-long'
p226
S'Broadcom BCM91480B systems (aka BigSur)'
p227
ss(S'description'
g150
NS'r5k-ip32'
tp228
(dp229
S'hardware'
p230
S'SGI IP32'
p231
sS'hardware-long'
p232
S'SGI IP32 systems (O2)'
p233
ss(S'description'
g119
NS'mx5'
tp234
(dp235
S'hardware'
p236
S'Freescale i.MX51'
p237
sS'hardware-long'
p238
S'Support for Freescale i.MX51 family of processors'
p239
ss(S'description'
g85
NS'alpha-legacy'
tp240
(dp241
S'hardware'
p242
S'Alpha Legacy'
p243
sS'hardware-long'
p244
S'DEC Alpha systems with legacy kernel start address'
p245
ss(S'description'
g56
NS'486'
tp246
(dp247
S'hardware'
p248
S'older PCs'
p249
sS'parts'
p250
(lp251
S'up'
p252
asS'hardware-long'
p253
S'PCs with a single processor not supporting PAE'
p254
ss(S'description'
g145
NS'sun3'
tp255
(dp256
S'hardware'
p257
S'sun3'
p258
ss(g31
g175
g32
tp259
(dp260
g35
I01
sg36
(lp261
S'sh7751r'
p262
aS'sh7785lcr'
p263
ass(S'image'
g66
NS'iop32x'
tp264
(dp265
S'check-size'
p266
S'1441784'
p267
ss(S'description'
g5
NS'parisc64-smp'
tp268
(dp269
S'hardware'
p270
S'multiprocessor 64-bit PA-RISC'
p271
ss(S'description'
g150
NS'r4k-ip22'
tp272
(dp273
S'hardware'
p274
S'SGI IP22'
p275
sS'hardware-long'
p276
S'SGI IP22 systems (Indy, Indigo2)'
p277
ss(S'description'
g150
NS'octeon'
tp278
(dp279
S'hardware'
p280
S'Octeon'
p281
sS'hardware-long'
p282
S'Cavium Networks Octeon'
p283
ss(S'base'
g66
tp284
(dp285
S'kernel-arch'
p286
S'arm'
p287
sg90
(lp288
g32
ass(S'image'
g138
NS'powerpc-smp'
tp289
(dp290
S'configs'
p291
(lp292
S'powerpc/config.powerpc'
p293
aS'powerpc/config.powerpc-smp'
p294
ass(S'base'
g71
tp295
(dp296
S'kernel-arch'
p297
S'sparc'
p298
sg90
(lp299
g32
ass(S'image'
g23
NS's390x-tape'
tp300
(dp301
S'configs'
p302
(lp303
S's390/config.s390x-tape'
p304
asS'override-localversion'
p305
S's390x'
p306
sS'type'
p307
S'plain-s390-tape'
p308
sS'initramfs'
p309
I00
ss(S'description'
g66
NS'kirkwood'
tp310
(dp311
S'hardware'
p312
S'Marvell Kirkwood'
p313
sS'hardware-long'
p314
S'Marvell Kirkwood based systems (SheevaPlug, QNAP TS-119/TS-219, etc)'
p315
ss(g31
g201
g32
tp316
(dp317
g35
I01
sg36
(lp318
S's390x'
p319
aS's390x-tape'
p320
ass(g31
g23
g32
tp321
(dp322
g35
I01
sg36
(lp323
S's390x'
p324
aS's390x-tape'
p325
ass(S'base'
g150
tp326
(dp327
S'kernel-arch'
p328
S'mips'
p329
sg90
(lp330
g32
ass(S'build'
g12
tp331
(dp332
S'debug-info'
p333
I01
ss(S'description'
g76
NS'powerpc64'
tp334
(dp335
S'hardware'
p336
S'64-bit PowerPC'
p337
ss(S'description'
g94
NS'loongson-2f'
tp338
(dp339
S'hardware'
p340
S'Loongson 2F'
p341
sS'hardware-long'
p342
S'Lemote Loongson 2F systems'
p343
ss(S'image'
g94
tp344
(dp345
S'initramfs'
p346
I00
ss(S'description'
g56
NS'686-pae'
tp347
(dp348
S'hardware'
p349
S'modern PCs'
p350
sS'parts'
p351
(lp352
S'pae'
p353
aS'xen'
p354
asS'hardware-long'
p355
S'PCs with one or more processors supporting PAE'
p356
ss(S'description'
g66
NS'versatile'
tp357
(dp358
S'hardware'
p359
S'Versatile'
p360
sS'hardware-long'
p361
S'Versatile systems (PB, AB, Qemu)'
p362
ss(S'base'
g12
tp363
(dp364
S'kernel-arch'
p365
S'x86'
p366
sS'featuresets'
p367
(lp368
g32
ag169
ass(S'base'
g48
tp369
(dp370
S'kernel-arch'
p371
S'ia64'
p372
sg90
(lp373
g32
ass(S'description'
g145
NS'bvme6000'
tp374
(dp375
S'hardware'
p376
S'BVM BVME4000 and BVME6000'
p377
ss(S'description'
g201
NS's390x'
tp378
(dp379
S'hardware'
p380
S'IBM zSeries'
p381
sS'parts'
p382
(lp383
S'reader'
p384
ass(S'description'
g85
NS'alpha-smp'
tp385
(dp386
S'hardware'
p387
S'Alpha SMP'
p388
sS'hardware-long'
p389
S'DEC Alpha SMP systems with extended kernel start address (Wildfire, Titan, Marvel)'
p390
ss(S'base'
g201
tp391
(dp392
S'kernel-arch'
p393
S's390'
p394
sg90
(lp395
g32
ass(g31
g66
g32
tp396
(dp397
g35
I01
sg36
(lp398
S'iop32x'
p399
aS'ixp4xx'
p400
aS'kirkwood'
p401
aS'orion5x'
p402
aS'versatile'
p403
ass(S'description'
g175
NS'sh7785lcr'
tp404
(dp405
S'hardware'
p406
S'sh7785lcr'
p407
sS'hardware-long'
p408
S'Renesas SH7785 reference board'
p409
ss(S'build'
g175
NS'sh7785lcr'
tp410
(dp411
S'image-file'
p412
S'arch/sh/boot/zImage'
p413
ss(S'description'
g145
NS'q40'
tp414
(dp415
S'hardware'
p416
S'Q40 and Q60'
p417
ss(S'xen'
g56
NS'686-pae'
tp418
(dp419
S'flavours'
p420
(lp421
S'i386'
p422
aS'amd64'
p423
asS'dom0-support'
p424
I01
ss(S'description'
g56
tp425
(dp426
S'part-long-pae'
p427
S'This kernel requires PAE (Physical Address Extension).\nThis feature is supported by the Intel Pentium Pro/II/III/4/4M/D, Xeon,\nCore and Atom; AMD Geode NX, Athlon (K7), Duron, Opteron, Sempron,\nTurion or Phenom; Transmeta Efficeon; VIA C7; and some other processors.'
p428
ss(S'relations'
tp429
(dp430
S'initramfs-fallback'
p431
S'linux-initramfs-tool'
p432
sS'lilo'
p433
S'lilo (>= 22.8-8.2~)'
p434
sS'gcc-4.6'
p435
S'gcc-4.6'
p436
sS'gcc-4.5'
p437
S'gcc-4.5'
p438
sS'gcc-4.4'
p439
S'gcc-4.4'
p440
sS'elilo'
p441
S'elilo (>= 3.12-3.1~)'
p442
sS's390-tools'
p443
S's390-tools (>= 1.8.3-2~)'
p444
sS'initramfs-tools'
p445
S'initramfs-tools (>= 0.99~)'
p446
ss(g31
g56
g32
tp447
(dp448
g35
I01
sg36
(lp449
S'486'
p450
aS'686-pae'
p451
aS'amd64'
p452
ass(S'build'
g23
NS's390x-tape'
tp453
(dp454
S'modules'
p455
I00
ss(S'image'
g66
tp456
(dp457
S'suggests'
p458
S'fdutils'
p459
ss(S'image'
g201
tp460
(dp461
S'bootloaders'
p462
(lp463
S's390-tools'
p464
ass(S'description'
g145
NS'mvme147'
tp465
(dp466
S'hardware'
p467
S'Motorola MVME147'
p468
ss(S'relations'
g5
tp469
(dp470
S'gcc-4.4'
p471
S'gcc-4.4, binutils-hppa64, gcc-4.4-hppa64'
p472
ss(S'description'
g66
NS'ixp4xx'
tp473
(dp474
S'hardware'
p475
S'IXP4xx'
p476
sS'hardware-long'
p477
S'IXP4xx based systems (Linksys NSLU2, etc)'
p478
ss(S'description'
g145
NS'mvme16x'
tp479
(dp480
S'hardware'
p481
S'Motorola MVME162/6/7, MVME172/7'
p482
ss(S'description'
g66
NS'orion5x'
tp483
(dp484
S'hardware'
p485
S'Marvell Orion'
p486
sS'hardware-long'
p487
S'Marvell Orion 5181, 5182 and 5281 based systems (QNAP TS-109/TS-209, etc)'
p488
ss(S'image'
g56
NS'486'
tp489
(dp490
S'configs'
p491
(lp492
S'kernelarch-x86/config-arch-32'
p493
ass(S'build'
g66
NS'iop32x'
tp494
(dp495
S'image-file'
p496
S'arch/arm/boot/zImage'
p497
ss(g31
g5
g32
tp498
(dp499
g35
I01
sg36
(lp500
S'parisc'
p501
aS'parisc-smp'
p502
aS'parisc64'
p503
aS'parisc64-smp'
p504
ass(S'description'
g150
NS'4kc-malta'
tp505
(dp506
S'hardware'
p507
S'MIPS Malta'
p508
sS'hardware-long'
p509
S'MIPS Malta boards'
p510
ss(S'description'
g201
NS's390x-tape'
tp511
(dp512
S'hardware'
p513
S'IBM zSeries'
p514
sS'parts'
p515
(lp516
S'tape'
p517
ass(S'image'
g85
tp518
(dp519
S'suggests'
p520
S'aboot, fdutils'
p521
ss(S'base'
S'sparc64'
p522
tp523
(dp524
S'kernel-arch'
p525
S'sparc'
p526
sg90
(lp527
g32
ass(S'image'
g56
tp528
(dp529
S'configs'
p530
(lp531
S'kernelarch-x86/config'
p532
asS'bootloaders'
p533
(lp534
S'grub-pc'
p535
aS'extlinux'
p536
aS'lilo'
p537
ass(S'version'
p538
tp539
(dp540
S'abiname'
p541
S'3.2.0-1'
p542
sS'source'
p543
V3.2.2-1
p544
ss(S'description'
g138
NS'powerpc-smp'
tp545
(dp546
S'hardware'
p547
S'multiprocessor 32-bit PowerPC'
p548
ss(S'base'
g23
tp549
(dp550
S'kernel-arch'
p551
S's390'
p552
sg90
(lp553
g32
ass(S'description'
g201
NS's390'
tp554
(dp555
S'hardware'
p556
S'IBM S/390'
p557
sS'parts'
p558
(lp559
S'reader'
p560
ass(S'description'
g94
NS'4kc-malta'
tp561
(dp562
S'hardware'
p563
S'MIPS Malta'
p564
sS'hardware-long'
p565
S'MIPS Malta boards'
p566
ss(S'image'
g76
tp567
(dp568
S'suggests'
p569
S'mkvmlinuz'
p570
sS'configs'
p571
(lp572
S'powerpc/config'
p573
ass(S'image'
g150
tp574
(dp575
S'initramfs'
p576
I00
ss(S'xen'
g12
NS'amd64'
tp577
(dp578
S'flavours'
p579
(lp580
S'amd64'
p581
asS'dom0-support'
p582
I01
ss(S'description'
Ng39
tp583
(dp584
S'part-long-rt'
p585
S'This kernel includes the PREEMPT_RT realtime patch set.'
p586
sS'parts'
p587
(lp588
S'rt'
p589
asS'part-short-rt'
p590
S'PREEMPT_RT'
p591
ss(g31
g71
g32
tp592
(dp593
g35
I01
sg36
(lp594
S'sparc64'
p595
aS'sparc64-smp'
p596
ass(S'base'
g76
tp597
(dp598
S'kernel-arch'
p599
S'powerpc'
p600
sg90
(lp601
g32
ass(g31
g85
g32
tp602
(dp603
g35
I01
sg36
(lp604
S'alpha-generic'
p605
aS'alpha-smp'
p606
aS'alpha-legacy'
p607
ass(S'image'
g56
NS'686-pae'
tp608
(dp609
S'configs'
p610
(lp611
S'kernelarch-x86/config-arch-32'
p612
asS'recommends'
p613
S'libc6-i686'
p614
ss(g31
g48
g32
tp615
(dp616
g35
I01
sg36
(lp617
S'itanium'
p618
aS'mckinley'
p619
ass(S'description'
g201
tp620
(dp621
S'part-short-tape'
p622
S'IPL from tape'
p623
sS'part-long-tape'
p624
S'This kernel has support to IPL (boot) from a tape.'
p625
sS'part-long-reader'
p626
S'This kernel has support to IPL (boot) from a VM reader or DASD device.'
p627
ss(S'build'
g201
NS's390-tape'
tp628
(dp629
S'modules'
p630
I00
ss(S'xen'
g56
NS'amd64'
tp631
(dp632
S'flavours'
p633
(lp634
S'amd64'
p635
asS'dom0-support'
p636
I01
ss(g31
g150
g32
tp637
(dp638
g35
I01
sg36
(lp639
S'r4k-ip22'
p640
aS'r5k-ip32'
p641
aS'sb1-bcm91250a'
p642
aS'sb1a-bcm91480b'
p643
aS'4kc-malta'
p644
aS'5kc-malta'
p645
aS'octeon'
p646
ass(S'description'
g522
NS'sparc64'
tp647
(dp648
S'hardware'
p649
S'uniprocessor 64-bit UltraSPARC'
p650
ss(S'image'
g66
NS'orion5x'
tp651
(dp652
S'check-size'
p653
S'1572792'
p654
sS'recommends'
p655
S'uboot-mkimage'
p656
ss(S'image'
g94
NS'sb1a-bcm91480b'
tp657
(dp658
S'configs'
p659
(lp660
S'mips/config.sb1a-bcm91480b'
p661
ass(S'image'
g201
NS's390x-tape'
tp662
(dp663
S'override-localversion'
p664
S's390x'
p665
sS'type'
p666
S'plain-s390-tape'
p667
sS'initramfs'
p668
I00
ss(S'description'
g5
NS'parisc-smp'
tp669
(dp670
S'hardware'
p671
S'multiprocessor 32-bit PA-RISC'
p672
ss(S'build'
g56
NS'686-pae'
tp673
(dp674
S'debug-info'
p675
I01
ss(S'image'
g145
tp676
(dp677
S'suggests'
p678
S'vmelilo, fdutils'
p679
sS'initramfs'
p680
I00
ss(S'description'
g145
NS'atari'
tp681
(dp682
S'hardware'
p683
S'Atari'
p684
ss(S'build'
g119
NS'mx5'
tp685
(dp686
S'image-file'
p687
S'arch/arm/boot/zImage'
p688
ss(S'description'
g145
NS'mac'
tp689
(dp690
S'hardware'
p691
S'Macintosh'
p692
ss(S'description'
g522
NS'sparc64-smp'
tp693
(dp694
S'hardware'
p695
S'multiprocessor 64-bit UltraSPARC'
p696
ss(S'base'
g119
tp697
(dp698
S'kernel-arch'
p699
S'arm'
p700
sg90
(lp701
g32
ass(S'description'
g145
NS'hp'
tp702
(dp703
S'hardware'
p704
S'HP'
p705
ss(S'image'
g175
tp706
(dp707
S'suggests'
p708
S'fdutils'
p709
ss(S'base'
g5
tp710
(dp711
S'kernel-arch'
p712
S'parisc'
p713
sg90
(lp714
g32
asS'compiler'
p715
S'gcc-4.4'
p716
ss(S'description'
g175
NS'sh7751r'
tp717
(dp718
S'hardware'
p719
S'sh7751r'
p720
sS'hardware-long'
p721
S'Renesas SH7751R R2D plus board'
p722
ss(S'base'
g175
tp723
(dp724
S'kernel-arch'
p725
S'sh'
p726
sg90
(lp727
g32
ass(S'image'
g71
tp728
(dp729
S'suggests'
p730
S'silo, fdutils'
p731
ss(S'description'
tp732
(dp733
S'part-long-up'
p734
S'This kernel is not suitable for SMP (multi-processor,\nmulti-core or hyper-threaded) systems.'
p735
sS'part-long-xen'
p736
S'This kernel also runs on a Xen hypervisor.\nIt supports both privileged (dom0) and unprivileged (domU) operation.'
p737
ss(S'description'
g94
NS'sb1a-bcm91480b'
tp738
(dp739
S'hardware'
p740
S'BCM91480B'
p741
sS'hardware-long'
p742
S'Broadcom BCM91480B systems (aka BigSur)'
p743
ss(S'image'
g12
NS'amd64'
tp744
(dp745
S'configs'
p746
(lp747
S'kernelarch-x86/config-arch-64'
p748
ass(S'image'
g94
NS'sb1-bcm91250a'
tp749
(dp750
S'configs'
p751
(lp752
S'mips/config.sb1-bcm91250a'
p753
ass(S'image'
g522
tp754
(dp755
S'suggests'
p756
S'silo, fdutils'
p757
sS'configs'
p758
(lp759
S'sparc/config'
p760
ass(S'description'
g48
NS'mckinley'
tp761
(dp762
S'hardware'
p763
S'Itanium II'
p764
ss(S'image'
g119
NS'omap'
tp765
(dp766
S'recommends'
p767
S'uboot-mkimage'
p768
ss(S'description'
g138
NS'powerpc'
tp769
(dp770
S'hardware'
p771
S'uniprocessor 32-bit PowerPC'
p772
ss(S'base'
g138
tp773
(dp774
S'kernel-arch'
p775
S'powerpc'
p776
sg90
(lp777
g32
ass(S'build'
g66
NS'orion5x'
tp778
(dp779
S'image-file'
p780
S'arch/arm/boot/zImage'
p781
ss(S'image'
g66
NS'kirkwood'
tp782
(dp783
S'check-size'
p784
S'2097080'
p785
sS'recommends'
p786
S'uboot-mkimage'
p787
ss(S'description'
g66
NS'iop32x'
tp788
(dp789
S'hardware'
p790
S'IOP32x'
p791
sS'hardware-long'
p792
S'IOP32x based systems (Thecus N2100, etc)'
p793
ss(S'description'
g23
tp794
(dp795
S'part-short-tape'
p796
S'IPL from tape'
p797
sS'part-long-tape'
p798
S'This kernel has support to IPL (boot) from a tape.'
p799
sS'part-long-reader'
p800
S'This kernel has support to IPL (boot) from a VM reader or DASD device.'
p801
ss(S'image'
g119
tp802
(dp803
S'suggests'
p804
S'fdutils'
p805
sS'configs'
p806
(lp807
S'armel/config'
p808
aS'armhf/config'
p809
ass(S'abi'
tp810
(dp811
S'abiname'
p812
S'1'
sS'ignore-changes'
p813
(lp814
S'module:arch/x86/kvm/*'
p815
ass(S'description'
g150
NS'5kc-malta'
tp816
(dp817
S'hardware'
p818
S'MIPS Malta (64-bit)'
p819
sS'hardware-long'
p820
S'MIPS Malta boards (64-bit)'
p821
ss(g31
g145
g32
tp822
(dp823
g35
I01
sg36
(lp824
S'amiga'
p825
aS'atari'
p826
aS'bvme6000'
p827
aS'mac'
p828
aS'mvme147'
p829
aS'mvme16x'
p830
ass(S'build'
g119
NS'omap'
tp831
(dp832
S'image-file'
p833
S'arch/arm/boot/zImage'
p834
ss(S'base'
tp835
(dp836
S'arches'
p837
(lp838
S'alpha'
p839
aS'amd64'
p840
aS'armel'
p841
aS'armhf'
p842
aS'hppa'
p843
aS'i386'
p844
aS'ia64'
p845
aS'm68k'
p846
aS'mips'
p847
aS'mipsel'
p848
aS'powerpc'
p849
aS'ppc64'
p850
aS's390'
p851
aS's390x'
p852
aS'sh4'
p853
aS'sparc'
p854
aS'sparc64'
p855
asS'featuresets'
p856
(lp857
S'none'
p858
aS'rt'
p859
asS'compiler'
p860
S'gcc-4.6'
p861
ss(S'description'
g23
NS's390x-tape'
tp862
(dp863
S'hardware'
p864
S'IBM zSeries'
p865
sS'parts'
p866
(lp867
S'tape'
p868
ass(S'image'
g522
NS'sparc64-smp'
tp869
(dp870
S'configs'
p871
(lp872
S'sparc/config.sparc64-smp'
p873
ass(S'description'
g119
NS'omap'
tp874
(dp875
S'hardware'
p876
S'TI OMAP3+'
p877
sS'hardware-long'
p878
S'Texas Instruments OMAP3 or OMAP4 based systems'
p879
ss(S'base'
g145
tp880
(dp881
S'kernel-arch'
p882
S'm68k'
p883
sg90
(lp884
g32
asS'cflags'
p885
S'-ffreestanding'
p886
sS'compiler'
p887
S'gcc-4.6'
p888
ss(S'image'
g522
NS'sparc64'
tp889
(dp890
S'configs'
p891
(lp892
S'sparc/config.sparc64'
p893
ass(S'image'
tp894
(dp895
S'initramfs-generators'
p896
(lp897
S'initramfs-tools'
p898
aS'initramfs-fallback'
p899
asS'type'
p900
S'plain'
p901
ss(S'base'
g5
NS'parisc64-smp'
tp902
(dp903
S'override-host-type'
p904
S'hppa64-linux-gnu'
p905
sS'cflags'
p906
S'-fno-cse-follow-jumps'
p907
ss(S'description'
g94
NS'r5k-cobalt'
tp908
(dp909
S'hardware'
p910
S'Cobalt'
p911
sS'hardware-long'
p912
S'Cobalt systems (Qube, RaQ, Qube2, RaQ2)'
p913
ss(g31
g522
g32
tp914
(dp915
g35
I01
sg36
(lp916
S'sparc64'
p917
aS'sparc64-smp'
p918
ass(S'image'
g5
tp919
(dp920
S'suggests'
p921
S'palo'
p922
ss(S'image'
g94
NS'4kc-malta'
tp923
(dp924
S'configs'
p925
(lp926
S'mips/config.4kc-malta'
p927
ass(S'build'
g201
NS's390x-tape'
tp928
(dp929
S'modules'
p930
I00
ss(S'image'
g175
NS'sh7785lcr'
tp931
(dp932
S'check-size'
p933
S'4194304'
p934
sS'recommends'
p935
S'uboot-mkimage'
p936
ss(S'image'
g23
tp937
(dp938
S'configs'
p939
(lp940
S's390/config'
p941
asS'bootloaders'
p942
(lp943
S's390-tools'
p944
ass(S'image'
g76
NS'powerpc64'
tp945
(dp946
S'configs'
p947
(lp948
S'powerpc/config.powerpc64'
p949
ass(S'image'
g66
NS'ixp4xx'
tp950
(dp951
S'check-size'
p952
S'1441760'
p953
ss(S'image'
g201
NS's390-tape'
tp954
(dp955
S'override-localversion'
p956
S's390'
p957
sS'type'
p958
S'plain-s390-tape'
p959
sS'initramfs'
p960
I00
ss(S'description'
g138
NS'powerpc64'
tp961
(dp962
S'hardware'
p963
S'64-bit PowerPC'
p964
ss(S'description'
g71
NS'sparc64'
tp965
(dp966
S'hardware'
p967
S'uniprocessor 64-bit UltraSPARC'
p968
ss(S'description'
g48
NS'itanium'
tp969
(dp970
S'hardware'
p971
S'Itanium'
p972
sstRp973
.