ccopy_reg
_reconstructor
p1
(cdebian_linux.config
ConfigCore
p2
c__builtin__
dict
p3
(dp4
(S'description'
S'armel'
p5
NS'kirkwood'
tp6
(dp7
S'hardware'
p8
S'Marvell Kirkwood'
p9
sS'hardware-long'
p10
S'Marvell Kirkwood based systems (SheevaPlug, QNAP TS-119/TS-219, etc)'
p11
ss(S'image'
S'amd64'
p12
tp13
(dp14
S'configs'
p15
(lp16
S'kernelarch-x86/config'
p17
asS'bootloaders'
p18
(lp19
S'grub-pc'
p20
aS'extlinux'
p21
aS'lilo'
p22
ass(S'description'
S'mips'
p23
NS'4kc-malta'
tp24
(dp25
S'hardware'
p26
S'MIPS Malta'
p27
sS'hardware-long'
p28
S'MIPS Malta boards'
p29
ss(S'base'
p30
g12
S'none'
p31
tp32
(dp33
S'implicit-flavour'
p34
I01
sS'flavours'
p35
(lp36
S'amd64'
p37
ass(S'base'
g12
S'rt'
p38
tp39
(dp40
S'flavours'
p41
(lp42
S'amd64'
p43
ass(S'image'
S'sparc64'
p44
NS'sparc64-smp'
tp45
(dp46
S'configs'
p47
(lp48
S'sparc/config.sparc64-smp'
p49
ass(S'description'
S'powerpc'
p50
NS'powerpc64'
tp51
(dp52
S'hardware'
p53
S'64-bit PowerPC'
p54
ss(S'description'
S'm68k'
p55
NS'q40'
tp56
(dp57
S'hardware'
p58
S'Q40 and Q60'
p59
ss(S'build'
S's390'
p60
NS's390-tape'
tp61
(dp62
S'modules'
p63
I00
ss(S'image'
S'ia64'
p64
tp65
(dp66
S'suggests'
p67
S'fdutils'
p68
sS'bootloaders'
p69
(lp70
S'elilo'
p71
ass(S'version'
p72
tp73
(dp74
S'abiname'
p75
S'3.2.0-1'
p76
sS'source'
p77
V3.2.4-1
p78
ss(g30
S'ppc64'
p79
g31
tp80
(dp81
g34
I01
sg35
(lp82
S'powerpc64'
p83
ass(S'image'
S'armhf'
p84
NS'omap'
tp85
(dp86
S'recommends'
p87
S'uboot-mkimage'
p88
ss(S'description'
g55
NS'hp'
tp89
(dp90
S'hardware'
p91
S'HP'
p92
ss(S'description'
S'i386'
p93
NS'486'
tp94
(dp95
S'hardware'
p96
S'older PCs'
p97
sS'parts'
p98
(lp99
S'up'
p100
asS'hardware-long'
p101
S'PCs with a single processor not supporting PAE'
p102
ss(S'build'
S'sh4'
p103
NS'sh7751r'
tp104
(dp105
S'image-file'
p106
S'arch/sh/boot/zImage'
p107
ss(S'description'
g5
NS'mv78xx0'
tp108
(dp109
S'hardware'
p110
S'Marvell 78xx0'
p111
sS'hardware-long'
p112
S'Marvell DB-78xx0-BP Development Board'
p113
ss(S'base'
S'alpha'
p114
tp115
(dp116
S'kernel-arch'
p117
S'alpha'
p118
sS'featuresets'
p119
(lp120
g31
asS'compiler'
p121
S'gcc-4.5'
p122
ss(S'description'
g60
NS's390x'
tp123
(dp124
S'hardware'
p125
S'IBM zSeries'
p126
sS'parts'
p127
(lp128
S'reader'
p129
ass(g30
g84
g31
tp130
(dp131
g34
I01
sg35
(lp132
S'mx5'
p133
aS'omap'
p134
ass(S'build'
g5
NS'orion5x'
tp135
(dp136
S'image-file'
p137
S'arch/arm/boot/zImage'
p138
ss(S'description'
g23
NS'r4k-ip22'
tp139
(dp140
S'hardware'
p141
S'SGI IP22'
p142
sS'hardware-long'
p143
S'SGI IP22 systems (Indy, Indigo2)'
p144
ss(S'build'
g12
tp145
(dp146
S'debug-info'
p147
I01
ss(S'description'
g64
NS'itanium'
tp148
(dp149
S'hardware'
p150
S'Itanium'
p151
ss(S'description'
g5
NS'iop32x'
tp152
(dp153
S'hardware'
p154
S'IOP32x'
p155
sS'hardware-long'
p156
S'IOP32x based systems (Thecus N2100, etc)'
p157
ss(S'build'
g5
NS'ixp4xx'
tp158
(dp159
S'image-file'
p160
S'arch/arm/boot/zImage'
p161
ss(S'image'
g50
tp162
(dp163
S'suggests'
p164
S'mkvmlinuz'
p165
ss(S'image'
g12
NS'amd64'
tp166
(dp167
S'configs'
p168
(lp169
S'kernelarch-x86/config-arch-64'
p170
ass(S'base'
S'mipsel'
p171
tp172
(dp173
S'kernel-arch'
p174
S'mips'
p175
sg119
(lp176
g31
ass(S'description'
g171
NS'4kc-malta'
tp177
(dp178
S'hardware'
p179
S'MIPS Malta'
p180
sS'hardware-long'
p181
S'MIPS Malta boards'
p182
ss(S'base'
g93
tp183
(dp184
S'kernel-arch'
p185
S'x86'
p186
sg119
(lp187
g31
ass(S'image'
g44
NS'sparc64'
tp188
(dp189
S'configs'
p190
(lp191
S'sparc/config.sparc64'
p192
ass(S'image'
g60
NS's390x-tape'
tp193
(dp194
S'override-localversion'
p195
S's390x'
p196
sS'type'
p197
S'plain-s390-tape'
p198
sS'initramfs'
p199
I00
ss(S'description'
g171
NS'sb1a-bcm91480b'
tp200
(dp201
S'hardware'
p202
S'BCM91480B'
p203
sS'hardware-long'
p204
S'Broadcom BCM91480B systems (aka BigSur)'
p205
ss(S'relations'
tp206
(dp207
S'initramfs-fallback'
p208
S'linux-initramfs-tool'
p209
sS'lilo'
p210
S'lilo (>= 22.8-8.2~)'
p211
sS'gcc-4.6'
p212
S'gcc-4.6'
p213
sS'gcc-4.5'
p214
S'gcc-4.5'
p215
sS'gcc-4.4'
p216
S'gcc-4.4'
p217
sS'elilo'
p218
S'elilo (>= 3.12-3.1~)'
p219
sS's390-tools'
p220
S's390-tools (>= 1.8.3-2~)'
p221
sS'initramfs-tools'
p222
S'initramfs-tools (>= 0.99~)'
p223
ss(S'description'
g55
NS'sun3'
tp224
(dp225
S'hardware'
p226
S'sun3'
p227
ss(S'description'
g60
NS's390'
tp228
(dp229
S'hardware'
p230
S'IBM S/390'
p231
sS'parts'
p232
(lp233
S'reader'
p234
ass(g30
g103
g31
tp235
(dp236
g34
I01
sg35
(lp237
S'sh7751r'
p238
aS'sh7785lcr'
p239
ass(S'description'
g171
NS'loongson-2f'
tp240
(dp241
S'hardware'
p242
S'Loongson 2F'
p243
sS'hardware-long'
p244
S'Lemote Loongson 2F systems'
p245
ss(S'base'
g5
tp246
(dp247
S'kernel-arch'
p248
S'arm'
p249
sg119
(lp250
g31
ass(S'image'
g50
NS'powerpc-smp'
tp251
(dp252
S'configs'
p253
(lp254
S'powerpc/config.powerpc'
p255
aS'powerpc/config.powerpc-smp'
p256
ass(S'base'
S'sparc'
p257
tp258
(dp259
S'kernel-arch'
p260
S'sparc'
p261
sg119
(lp262
g31
ass(S'xen'
g93
NS'amd64'
tp263
(dp264
S'flavours'
p265
(lp266
S'amd64'
p267
asS'dom0-support'
p268
I01
ss(g30
g60
g31
tp269
(dp270
g34
I01
sg35
(lp271
S's390x'
p272
aS's390x-tape'
p273
ass(g30
S's390x'
p274
g31
tp275
(dp276
g34
I01
sg35
(lp277
S's390x'
p278
aS's390x-tape'
p279
ass(S'base'
g23
tp280
(dp281
S'kernel-arch'
p282
S'mips'
p283
sg119
(lp284
g31
ass(S'build'
g84
NS'mx5'
tp285
(dp286
S'image-file'
p287
S'arch/arm/boot/zImage'
p288
ss(S'description'
g23
NS'octeon'
tp289
(dp290
S'hardware'
p291
S'Octeon'
p292
sS'hardware-long'
p293
S'Cavium Networks Octeon'
p294
ss(S'description'
g64
NS'mckinley'
tp295
(dp296
S'hardware'
p297
S'Itanium II'
p298
ss(g30
g171
g31
tp299
(dp300
g34
I01
sg35
(lp301
S'r5k-cobalt'
p302
aS'sb1-bcm91250a'
p303
aS'sb1a-bcm91480b'
p304
aS'4kc-malta'
p305
aS'5kc-malta'
p306
aS'loongson-2f'
p307
ass(S'build'
g103
NS'sh7785lcr'
tp308
(dp309
S'image-file'
p310
S'arch/sh/boot/zImage'
p311
ss(S'image'
g171
tp312
(dp313
S'initramfs'
p314
I00
ss(S'description'
g84
NS'mx5'
tp315
(dp316
S'hardware'
p317
S'Freescale i.MX51'
p318
sS'hardware-long'
p319
S'Support for Freescale i.MX51 family of processors'
p320
ss(S'image'
g171
NS'sb1-bcm91250a'
tp321
(dp322
S'configs'
p323
(lp324
S'mips/config.sb1-bcm91250a'
p325
ass(S'description'
S'hppa'
p326
NS'parisc'
tp327
(dp328
S'hardware'
p329
S'32-bit PA-RISC'
p330
ss(S'abi'
NS'rt'
p331
tp332
(dp333
S'ignore-changes'
p334
(lp335
S'*'
ass(S'base'
g12
tp336
(dp337
S'kernel-arch'
p338
S'x86'
p339
sS'featuresets'
p340
(lp341
g31
ag38
ass(S'base'
g64
tp342
(dp343
S'kernel-arch'
p344
S'ia64'
p345
sg119
(lp346
g31
ass(S'description'
g23
NS'5kc-malta'
tp347
(dp348
S'hardware'
p349
S'MIPS Malta (64-bit)'
p350
sS'hardware-long'
p351
S'MIPS Malta boards (64-bit)'
p352
ss(S'image'
g5
NS'iop32x'
tp353
(dp354
S'check-size'
p355
S'1441784'
p356
ss(S'image'
g79
NS'powerpc64'
tp357
(dp358
S'configs'
p359
(lp360
S'powerpc/config.powerpc64'
p361
ass(S'base'
g60
tp362
(dp363
S'kernel-arch'
p364
S's390'
p365
sg119
(lp366
g31
ass(g30
g5
g31
tp367
(dp368
g34
I01
sg35
(lp369
S'iop32x'
p370
aS'ixp4xx'
p371
aS'kirkwood'
p372
aS'mv78xx0'
p373
aS'orion5x'
p374
aS'versatile'
p375
ass(S'description'
Ng331
tp376
(dp377
S'part-long-rt'
p378
S'This kernel includes the PREEMPT_RT realtime patch set.'
p379
sS'parts'
p380
(lp381
S'rt'
p382
asS'part-short-rt'
p383
S'PREEMPT_RT'
p384
ss(S'description'
g84
NS'omap'
tp385
(dp386
S'hardware'
p387
S'TI OMAP3+'
p388
sS'hardware-long'
p389
S'Texas Instruments OMAP3 or OMAP4 based systems'
p390
ss(S'build'
g5
NS'mv78xx0'
tp391
(dp392
S'image-file'
p393
S'arch/arm/boot/zImage'
p394
ss(S'description'
g55
NS'amiga'
tp395
(dp396
S'hardware'
p397
S'Amiga'
p398
ss(S'build'
g60
NS's390x-tape'
tp399
(dp400
S'modules'
p401
I00
ss(S'description'
g103
NS'sh7785lcr'
tp402
(dp403
S'hardware'
p404
S'sh7785lcr'
p405
sS'hardware-long'
p406
S'Renesas SH7785 reference board'
p407
ss(S'description'
g114
NS'alpha-legacy'
tp408
(dp409
S'hardware'
p410
S'Alpha Legacy'
p411
sS'hardware-long'
p412
S'DEC Alpha systems with legacy kernel start address'
p413
ss(S'description'
g93
tp414
(dp415
S'part-long-pae'
p416
S'This kernel requires PAE (Physical Address Extension).\nThis feature is supported by the Intel Pentium Pro/II/III/4/4M/D, Xeon,\nCore and Atom; AMD Geode NX, Athlon (K7), Duron, Opteron, Sempron,\nTurion or Phenom; Transmeta Efficeon; VIA C7; and some other processors.'
p417
ss(S'description'
g274
NS's390x-tape'
tp418
(dp419
S'hardware'
p420
S'IBM zSeries'
p421
sS'parts'
p422
(lp423
S'tape'
p424
ass(S'xen'
g93
NS'686-pae'
tp425
(dp426
S'flavours'
p427
(lp428
S'i386'
p429
aS'amd64'
p430
asS'dom0-support'
p431
I01
ss(S'build'
g84
NS'omap'
tp432
(dp433
S'image-file'
p434
S'arch/arm/boot/zImage'
p435
ss(S'image'
g84
tp436
(dp437
S'suggests'
p438
S'fdutils'
p439
sS'configs'
p440
(lp441
S'armel/config'
p442
aS'armhf/config'
p443
ass(S'image'
g274
NS's390x'
tp444
(dp445
S'configs'
p446
(lp447
S's390/config.s390x'
p448
ass(S'image'
g5
tp449
(dp450
S'suggests'
p451
S'fdutils'
p452
ss(S'image'
g60
tp453
(dp454
S'bootloaders'
p455
(lp456
S's390-tools'
p457
ass(S'image'
g326
tp458
(dp459
S'suggests'
p460
S'palo'
p461
ss(S'description'
g5
NS'ixp4xx'
tp462
(dp463
S'hardware'
p464
S'IXP4xx'
p465
sS'hardware-long'
p466
S'IXP4xx based systems (Linksys NSLU2, etc)'
p467
ss(S'base'
g326
NS'parisc64-smp'
tp468
(dp469
S'override-host-type'
p470
S'hppa64-linux-gnu'
p471
sS'cflags'
p472
S'-fno-cse-follow-jumps'
p473
ss(S'description'
g50
NS'powerpc'
tp474
(dp475
S'hardware'
p476
S'uniprocessor 32-bit PowerPC'
p477
ss(S'relations'
g326
tp478
(dp479
S'gcc-4.4'
p480
S'gcc-4.4, binutils-hppa64, gcc-4.4-hppa64'
p481
ss(S'image'
g93
NS'686-pae'
tp482
(dp483
S'configs'
p484
(lp485
S'kernelarch-x86/config-arch-32'
p486
asS'recommends'
p487
S'libc6-i686'
p488
ss(S'image'
g93
NS'486'
tp489
(dp490
S'configs'
p491
(lp492
S'kernelarch-x86/config-arch-32'
p493
ass(S'description'
g326
NS'parisc-smp'
tp494
(dp495
S'hardware'
p496
S'multiprocessor 32-bit PA-RISC'
p497
ss(S'build'
g93
NS'686-pae'
tp498
(dp499
S'debug-info'
p500
I01
ss(S'image'
g60
NS's390-tape'
tp501
(dp502
S'override-localversion'
p503
S's390'
p504
sS'type'
p505
S'plain-s390-tape'
p506
sS'initramfs'
p507
I00
ss(g30
g326
g31
tp508
(dp509
g34
I01
sg35
(lp510
S'parisc'
p511
aS'parisc-smp'
p512
aS'parisc64'
p513
aS'parisc64-smp'
p514
ass(S'image'
g171
NS'4kc-malta'
tp515
(dp516
S'configs'
p517
(lp518
S'mips/config.4kc-malta'
p519
ass(S'image'
g114
tp520
(dp521
S'suggests'
p522
S'aboot, fdutils'
p523
ss(S'base'
g44
tp524
(dp525
S'kernel-arch'
p526
S'sparc'
p527
sg119
(lp528
g31
ass(S'description'
g114
NS'alpha-generic'
tp529
(dp530
S'hardware'
p531
S'Alpha'
p532
sS'hardware-long'
p533
S'DEC Alpha systems with extended kernel start address (Wildfire, Titan, Marvel)'
p534
ss(S'description'
g60
NS's390-tape'
tp535
(dp536
S'hardware'
p537
S'IBM S/390'
p538
sS'parts'
p539
(lp540
S'tape'
p541
ass(S'description'
g55
NS'mvme16x'
tp542
(dp543
S'hardware'
p544
S'Motorola MVME162/6/7, MVME172/7'
p545
ss(S'description'
g171
NS'r5k-cobalt'
tp546
(dp547
S'hardware'
p548
S'Cobalt'
p549
sS'hardware-long'
p550
S'Cobalt systems (Qube, RaQ, Qube2, RaQ2)'
p551
ss(S'image'
g79
tp552
(dp553
S'suggests'
p554
S'mkvmlinuz'
p555
sS'configs'
p556
(lp557
S'powerpc/config'
p558
ass(S'image'
g23
tp559
(dp560
S'initramfs'
p561
I00
ss(S'image'
g93
tp562
(dp563
S'configs'
p564
(lp565
S'kernelarch-x86/config'
p566
asS'bootloaders'
p567
(lp568
S'grub-pc'
p569
aS'extlinux'
p570
aS'lilo'
p571
ass(g30
g257
g31
tp572
(dp573
g34
I01
sg35
(lp574
S'sparc64'
p575
aS'sparc64-smp'
p576
ass(S'image'
g274
NS's390x-tape'
tp577
(dp578
S'configs'
p579
(lp580
S's390/config.s390x-tape'
p581
asS'override-localversion'
p582
S's390x'
p583
sS'type'
p584
S'plain-s390-tape'
p585
sS'initramfs'
p586
I00
ss(S'base'
g79
tp587
(dp588
S'kernel-arch'
p589
S'powerpc'
p590
sg119
(lp591
g31
ass(g30
g114
g31
tp592
(dp593
g34
I01
sg35
(lp594
S'alpha-generic'
p595
aS'alpha-smp'
p596
aS'alpha-legacy'
p597
ass(g30
g64
g31
tp598
(dp599
g34
I01
sg35
(lp600
S'itanium'
p601
aS'mckinley'
p602
ass(S'description'
g60
tp603
(dp604
S'part-short-tape'
p605
S'IPL from tape'
p606
sS'part-long-tape'
p607
S'This kernel has support to IPL (boot) from a tape.'
p608
sS'part-long-reader'
p609
S'This kernel has support to IPL (boot) from a VM reader or DASD device.'
p610
ss(g30
g23
g31
tp611
(dp612
g34
I01
sg35
(lp613
S'r4k-ip22'
p614
aS'r5k-ip32'
p615
aS'sb1-bcm91250a'
p616
aS'sb1a-bcm91480b'
p617
aS'4kc-malta'
p618
aS'5kc-malta'
p619
aS'octeon'
p620
ass(S'image'
g5
NS'orion5x'
tp621
(dp622
S'check-size'
p623
S'1572792'
p624
sS'recommends'
p625
S'uboot-mkimage'
p626
ss(S'description'
g114
NS'alpha-smp'
tp627
(dp628
S'hardware'
p629
S'Alpha SMP'
p630
sS'hardware-long'
p631
S'DEC Alpha SMP systems with extended kernel start address (Wildfire, Titan, Marvel)'
p632
ss(S'build'
g5
NS'kirkwood'
tp633
(dp634
S'image-file'
p635
S'arch/arm/boot/zImage'
p636
ss(S'image'
g55
tp637
(dp638
S'suggests'
p639
S'vmelilo, fdutils'
p640
sS'initramfs'
p641
I00
ss(S'xen'
g12
NS'amd64'
tp642
(dp643
S'flavours'
p644
(lp645
S'amd64'
p646
asS'dom0-support'
p647
I01
ss(S'description'
g55
NS'atari'
tp648
(dp649
S'hardware'
p650
S'Atari'
p651
ss(S'base'
g84
tp652
(dp653
S'kernel-arch'
p654
S'arm'
p655
sg119
(lp656
g31
ass(S'description'
g103
NS'sh7751r'
tp657
(dp658
S'hardware'
p659
S'sh7751r'
p660
sS'hardware-long'
p661
S'Renesas SH7751R R2D plus board'
p662
ss(S'description'
g55
NS'mac'
tp663
(dp664
S'hardware'
p665
S'Macintosh'
p666
ss(S'image'
g103
tp667
(dp668
S'suggests'
p669
S'fdutils'
p670
ss(S'base'
g326
tp671
(dp672
S'kernel-arch'
p673
S'parisc'
p674
sg119
(lp675
g31
asS'compiler'
p676
S'gcc-4.4'
p677
ss(S'description'
g326
NS'parisc64-smp'
tp678
(dp679
S'hardware'
p680
S'multiprocessor 64-bit PA-RISC'
p681
ss(S'base'
g103
tp682
(dp683
S'kernel-arch'
p684
S'sh'
p685
sg119
(lp686
g31
ass(S'image'
g5
NS'ixp4xx'
tp687
(dp688
S'check-size'
p689
S'1441760'
p690
ss(S'image'
g257
tp691
(dp692
S'suggests'
p693
S'silo, fdutils'
p694
ss(S'description'
tp695
(dp696
S'part-long-up'
p697
S'This kernel is not suitable for SMP (multi-processor,\nmulti-core or hyper-threaded) systems.'
p698
sS'part-long-xen'
p699
S'This kernel also runs on a Xen hypervisor.\nIt supports both privileged (dom0) and unprivileged (domU) operation.'
p700
ss(S'description'
g274
NS's390x'
tp701
(dp702
S'hardware'
p703
S'IBM zSeries'
p704
sS'parts'
p705
(lp706
S'reader'
p707
ass(S'description'
g257
NS'sparc64'
tp708
(dp709
S'hardware'
p710
S'uniprocessor 64-bit UltraSPARC'
p711
ss(S'description'
g257
NS'sparc32'
tp712
(dp713
S'hardware'
p714
S'uniprocessor sparc32 (sun4m)'
p715
ss(S'description'
g171
NS'sb1-bcm91250a'
tp716
(dp717
S'hardware'
p718
S'BCM91250A'
p719
sS'hardware-long'
p720
S'Broadcom BCM91250A systems (aka SWARM)'
p721
ss(S'description'
g55
NS'mvme147'
tp722
(dp723
S'hardware'
p724
S'Motorola MVME147'
p725
ss(S'image'
g44
tp726
(dp727
S'suggests'
p728
S'silo, fdutils'
p729
sS'configs'
p730
(lp731
S'sparc/config'
p732
ass(S'base'
g274
tp733
(dp734
S'kernel-arch'
p735
S's390'
p736
sg119
(lp737
g31
ass(S'description'
g5
NS'orion5x'
tp738
(dp739
S'hardware'
p740
S'Marvell Orion'
p741
sS'hardware-long'
p742
S'Marvell Orion 5181, 5182 and 5281 based systems (QNAP TS-109/TS-209, etc)'
p743
ss(S'base'
g50
tp744
(dp745
S'kernel-arch'
p746
S'powerpc'
p747
sg119
(lp748
g31
ass(S'description'
g12
NS'amd64'
tp749
(dp750
S'hardware'
p751
S'64-bit PCs'
p752
sS'parts'
p753
(lp754
S'xen'
p755
asS'hardware-long'
p756
S'PCs with AMD64 or Intel 64 processors'
p757
ss(S'description'
g5
NS'versatile'
tp758
(dp759
S'hardware'
p760
S'Versatile'
p761
sS'hardware-long'
p762
S'Versatile systems (PB, AB, Qemu)'
p763
ss(S'description'
g171
NS'5kc-malta'
tp764
(dp765
S'hardware'
p766
S'MIPS Malta (64-bit)'
p767
sS'hardware-long'
p768
S'MIPS Malta boards (64-bit)'
p769
ss(S'image'
g103
NS'sh7785lcr'
tp770
(dp771
S'check-size'
p772
S'4194304'
p773
sS'recommends'
p774
S'uboot-mkimage'
p775
ss(S'image'
g171
NS'5kc-malta'
tp776
(dp777
S'configs'
p778
(lp779
S'mips/config.5kc-malta'
p780
ass(S'description'
g44
NS'sparc64-smp'
tp781
(dp782
S'hardware'
p783
S'multiprocessor 64-bit UltraSPARC'
p784
ss(S'image'
g93
NS'amd64'
tp785
(dp786
S'configs'
p787
(lp788
S'kernelarch-x86/config-arch-64'
p789
asS'recommends'
p790
S'libc6-i686'
p791
ss(S'description'
g50
NS'powerpc-smp'
tp792
(dp793
S'hardware'
p794
S'multiprocessor 32-bit PowerPC'
p795
ss(S'image'
g257
NS'sparc32'
tp796
(dp797
S'image-postproc'
p798
S'sparc32-image-postproc'
p799
ss(S'description'
g55
NS'bvme6000'
tp800
(dp801
S'hardware'
p802
S'BVM BVME4000 and BVME6000'
p803
ss(S'description'
g274
tp804
(dp805
S'part-short-tape'
p806
S'IPL from tape'
p807
sS'part-long-tape'
p808
S'This kernel has support to IPL (boot) from a tape.'
p809
sS'part-long-reader'
p810
S'This kernel has support to IPL (boot) from a VM reader or DASD device.'
p811
ss(S'description'
g23
NS'sb1a-bcm91480b'
tp812
(dp813
S'hardware'
p814
S'BCM91480B'
p815
sS'hardware-long'
p816
S'Broadcom BCM91480B systems (aka BigSur)'
p817
ss(S'abi'
tp818
(dp819
S'abiname'
p820
S'1'
sS'ignore-changes'
p821
(lp822
S'module:arch/x86/kvm/*'
p823
aS'fixed_phy_add'
p824
aS'fixed_phy_set_link_update'
p825
ass(S'description'
g23
NS'r5k-ip32'
tp826
(dp827
S'hardware'
p828
S'SGI IP32'
p829
sS'hardware-long'
p830
S'SGI IP32 systems (O2)'
p831
ss(S'build'
g5
NS'iop32x'
tp832
(dp833
S'image-file'
p834
S'arch/arm/boot/zImage'
p835
ss(g30
g55
g31
tp836
(dp837
g34
I01
sg35
(lp838
S'amiga'
p839
aS'atari'
p840
aS'bvme6000'
p841
aS'mac'
p842
aS'mvme147'
p843
aS'mvme16x'
p844
ass(S'description'
g257
NS'sparc64-smp'
tp845
(dp846
S'hardware'
p847
S'multiprocessor 64-bit UltraSPARC'
p848
ss(g30
g93
g31
tp849
(dp850
g34
I01
sg35
(lp851
S'486'
p852
aS'686-pae'
p853
aS'amd64'
p854
ass(S'base'
tp855
(dp856
S'arches'
p857
(lp858
S'alpha'
p859
aS'amd64'
p860
aS'armel'
p861
aS'armhf'
p862
aS'hppa'
p863
aS'i386'
p864
aS'ia64'
p865
aS'm68k'
p866
aS'mips'
p867
aS'mipsel'
p868
aS'powerpc'
p869
aS'ppc64'
p870
aS's390'
p871
aS's390x'
p872
aS'sh4'
p873
aS'sparc'
p874
aS'sparc64'
p875
asS'featuresets'
p876
(lp877
S'none'
p878
aS'rt'
p879
asS'compiler'
p880
S'gcc-4.6'
p881
ss(S'build'
g274
NS's390x-tape'
tp882
(dp883
S'modules'
p884
I00
ss(S'image'
g171
NS'sb1a-bcm91480b'
tp885
(dp886
S'configs'
p887
(lp888
S'mips/config.sb1a-bcm91480b'
p889
ass(g30
g50
g31
tp890
(dp891
g34
I01
sg35
(lp892
S'powerpc'
p893
aS'powerpc-smp'
p894
aS'powerpc64'
p895
ass(S'image'
g5
NS'kirkwood'
tp896
(dp897
S'check-size'
p898
S'2097080'
p899
sS'recommends'
p900
S'uboot-mkimage'
p901
ss(S'description'
g60
NS's390x-tape'
tp902
(dp903
S'hardware'
p904
S'IBM zSeries'
p905
sS'parts'
p906
(lp907
S'tape'
p908
ass(S'base'
g55
tp909
(dp910
S'kernel-arch'
p911
S'm68k'
p912
sg119
(lp913
g31
asS'cflags'
p914
S'-ffreestanding'
p915
sS'compiler'
p916
S'gcc-4.6'
p917
ss(S'description'
g79
NS'powerpc64'
tp918
(dp919
S'hardware'
p920
S'64-bit PowerPC'
p921
ss(S'image'
tp922
(dp923
S'initramfs-generators'
p924
(lp925
S'initramfs-tools'
p926
aS'initramfs-fallback'
p927
asS'type'
p928
S'plain'
p929
ss(S'description'
g23
NS'sb1-bcm91250a'
tp930
(dp931
S'hardware'
p932
S'BCM91250A'
p933
sS'hardware-long'
p934
S'Broadcom BCM91250A systems (aka SWARM)'
p935
ss(g30
g44
g31
tp936
(dp937
g34
I01
sg35
(lp938
S'sparc64'
p939
aS'sparc64-smp'
p940
ass(S'base'
g326
NS'parisc64'
tp941
(dp942
S'override-host-type'
p943
S'hppa64-linux-gnu'
p944
sS'cflags'
p945
S'-fno-cse-follow-jumps'
p946
ss(S'description'
g326
NS'parisc64'
tp947
(dp948
S'hardware'
p949
S'64-bit PA-RISC'
p950
ss(S'featureset-rt'
NS''
tp951
(dp952
S'enabled'
p953
S'true'
p954
ss(S'description'
g44
NS'sparc64'
tp955
(dp956
S'hardware'
p957
S'uniprocessor 64-bit UltraSPARC'
p958
ss(S'image'
g274
tp959
(dp960
S'configs'
p961
(lp962
S's390/config'
p963
asS'bootloaders'
p964
(lp965
S's390-tools'
p966
ass(S'description'
g93
NS'amd64'
tp967
(dp968
S'hardware'
p969
S'64-bit PCs'
p970
sS'parts'
p971
(lp972
S'xen'
p973
asS'hardware-long'
p974
S'PCs with AMD64 or Intel 64 processors'
p975
ss(S'description'
g93
NS'686-pae'
tp976
(dp977
S'hardware'
p978
S'modern PCs'
p979
sS'parts'
p980
(lp981
S'pae'
p982
aS'xen'
p983
asS'hardware-long'
p984
S'PCs with one or more processors supporting PAE'
p985
sstRp986
.