ccopy_reg
_reconstructor
p1
(cdebian_linux.config
ConfigCore
p2
c__builtin__
dict
p3
(dp4
(S'image'
S'amd64'
p5
tp6
(dp7
S'configs'
p8
(lp9
S'kernelarch-x86/config'
p10
asS'bootloaders'
p11
(lp12
S'grub-pc'
p13
aS'extlinux'
p14
aS'lilo'
p15
ass(S'description'
g5
NS'amd64'
tp16
(dp17
S'hardware'
p18
S'64-bit PCs'
p19
sS'hardware-long'
p20
S'PCs with AMD64 or Intel 64 processors'
p21
ss(S'base'
g5
S'none'
p22
tp23
(dp24
S'flavours'
p25
(lp26
S'amd64'
p27
ass(S'description'
S'alpha'
p28
NS'alpha-generic'
tp29
(dp30
S'hardware'
p31
S'Alpha'
p32
sS'hardware-long'
p33
S'DEC Alpha systems with extended kernel start address (Wildfire, Titan, Marvel)'
p34
ss(S'image'
S'ia64'
p35
tp36
(dp37
S'suggests'
p38
S'fdutils'
p39
sS'bootloaders'
p40
(lp41
S'elilo'
p42
ass(S'image'
S'mipsel'
p43
NS'4kc-malta'
tp44
(dp45
S'configs'
p46
(lp47
S'mips/config.4kc-malta'
p48
ass(S'description'
S's390'
p49
NS's390'
tp50
(dp51
S'hardware'
p52
S'IBM S/390'
p53
sS'parts'
p54
(lp55
S'reader'
p56
ass(S'abi'
tp57
(dp58
S'abiname'
p59
S'trunk'
p60
ss(S'xen'
S'i386'
p61
S'none'
p62
S'amd64'
tp63
(dp64
S'flavours'
p65
(lp66
S'amd64'
p67
asS'dom0-support'
p68
I01
ss(S'version'
p69
tp70
(dp71
S'abiname'
p72
S'3.3.0-trunk'
p73
sS'source'
p74
V3.3-1~experimental.1
p75
ss(S'description'
g5
g22
S'amd64'
tp76
(dp77
S'parts'
p78
(lp79
S'xen'
p80
ass(S'base'
p81
S'ppc64'
p82
S'none'
p83
tp84
(dp85
S'implicit-flavour'
p86
I01
sS'flavours'
p87
(lp88
S'powerpc64'
p89
ass(S'description'
S'sparc64'
p90
NS'sparc64'
tp91
(dp92
S'hardware'
p93
S'uniprocessor 64-bit UltraSPARC'
p94
ss(S'base'
g28
tp95
(dp96
S'kernel-arch'
p97
S'alpha'
p98
sS'featuresets'
p99
(lp100
g83
asS'compiler'
p101
S'gcc-4.5'
p102
ss(S'image'
S's390x'
p103
NS's390x'
tp104
(dp105
S'configs'
p106
(lp107
S's390/config.s390x'
p108
ass(S'description'
S'mips'
p109
NS'r5k-ip32'
tp110
(dp111
S'hardware'
p112
S'SGI IP32'
p113
sS'hardware-long'
p114
S'SGI IP32 systems (O2)'
p115
ss(g81
S'armhf'
p116
g83
tp117
(dp118
g86
I01
sg87
(lp119
S'mx5'
p120
aS'omap'
p121
ass(S'image'
g90
NS'sparc64-smp'
tp122
(dp123
S'configs'
p124
(lp125
S'sparc/config.sparc64-smp'
p126
ass(S'description'
g43
NS'4kc-malta'
tp127
(dp128
S'hardware'
p129
S'MIPS Malta'
p130
sS'hardware-long'
p131
S'MIPS Malta boards'
p132
ss(g81
S'powerpc'
p133
g83
tp134
(dp135
g86
I01
sg87
(lp136
S'powerpc'
p137
aS'powerpc-smp'
p138
aS'powerpc64'
p139
ass(S'description'
g28
NS'alpha-legacy'
tp140
(dp141
S'hardware'
p142
S'Alpha Legacy'
p143
sS'hardware-long'
p144
S'DEC Alpha systems with legacy kernel start address'
p145
ss(S'image'
S'armel'
p146
NS'orion5x'
tp147
(dp148
S'check-size'
p149
S'1572792'
p150
sS'recommends'
p151
S'uboot-mkimage'
p152
ss(S'image'
g133
tp153
(dp154
S'suggests'
p155
S'mkvmlinuz'
p156
ss(S'image'
g146
NS'kirkwood'
tp157
(dp158
S'check-size'
p159
S'2097080'
p160
sS'recommends'
p161
S'uboot-mkimage'
p162
ss(S'description'
S'sparc'
p163
NS'sparc64'
tp164
(dp165
S'hardware'
p166
S'uniprocessor 64-bit UltraSPARC'
p167
ss(S'description'
g35
NS'itanium'
tp168
(dp169
S'hardware'
p170
S'Itanium'
p171
ss(S'description'
S'hppa'
p172
NS'parisc64'
tp173
(dp174
S'hardware'
p175
S'64-bit PA-RISC'
p176
ss(S'description'
g61
g62
S'amd64'
tp177
(dp178
S'parts'
p179
(lp180
S'xen'
p181
ass(S'base'
g61
tp182
(dp183
S'kernel-arch'
p184
S'x86'
p185
sS'featuresets'
p186
(lp187
S'none'
p188
ass(S'base'
g43
tp189
(dp190
S'kernel-arch'
p191
S'mips'
p192
sg99
(lp193
g83
ass(S'image'
g146
NS'ixp4xx'
tp194
(dp195
S'check-size'
p196
S'1441760'
p197
ss(S'base'
g172
tp198
(dp199
S'kernel-arch'
p200
S'parisc'
p201
sg99
(lp202
g83
asS'compiler'
p203
S'gcc-4.4'
p204
ss(S'description'
g61
NS'686-pae'
tp205
(dp206
S'hardware'
p207
S'modern PCs'
p208
sS'parts'
p209
(lp210
S'pae'
p211
asS'hardware-long'
p212
S'PCs with one or more processors supporting PAE'
p213
ss(S'description'
g146
NS'mv78xx0'
tp214
(dp215
S'hardware'
p216
S'Marvell 78xx0'
p217
sS'hardware-long'
p218
S'Marvell DB-78xx0-BP Development Board'
p219
ss(S'image'
g61
NS'amd64'
tp220
(dp221
S'configs'
p222
(lp223
S'kernelarch-x86/config-arch-64'
p224
asS'recommends'
p225
S'libc6-i686'
p226
ss(S'description'
g146
NS'orion5x'
tp227
(dp228
S'hardware'
p229
S'Marvell Orion'
p230
sS'hardware-long'
p231
S'Marvell Orion 5181, 5182 and 5281 based systems (QNAP TS-109/TS-209, etc)'
p232
ss(g81
g43
g83
tp233
(dp234
g86
I01
sg87
(lp235
S'r5k-cobalt'
p236
aS'sb1-bcm91250a'
p237
aS'sb1a-bcm91480b'
p238
aS'4kc-malta'
p239
aS'5kc-malta'
p240
aS'loongson-2f'
p241
ass(S'image'
g103
NS's390x-tape'
tp242
(dp243
S'configs'
p244
(lp245
S's390/config.s390x-tape'
p246
asS'override-localversion'
p247
S's390x'
p248
sS'type'
p249
S'plain-s390-tape'
p250
sS'initramfs'
p251
I00
ss(S'relations'
tp252
(dp253
S'initramfs-fallback'
p254
S'linux-initramfs-tool'
p255
sS'lilo'
p256
S'lilo (>= 22.8-8.2~)'
p257
sS'gcc-4.6'
p258
S'gcc-4.6'
p259
sS'gcc-4.5'
p260
S'gcc-4.5'
p261
sS'gcc-4.4'
p262
S'gcc-4.4'
p263
sS'elilo'
p264
S'elilo (>= 3.12-3.1~)'
p265
sS's390-tools'
p266
S's390-tools (>= 1.8.3-2~)'
p267
sS'initramfs-tools'
p268
S'initramfs-tools (>= 0.99~)'
p269
ss(S'description'
S'sh4'
p270
NS'sh7751r'
tp271
(dp272
S'hardware'
p273
S'sh7751r'
p274
sS'hardware-long'
p275
S'Renesas SH7751R R2D plus board'
p276
ss(S'description'
g109
NS'sb1-bcm91250a'
tp277
(dp278
S'hardware'
p279
S'BCM91250A'
p280
sS'hardware-long'
p281
S'Broadcom BCM91250A systems (aka SWARM)'
p282
ss(S'description'
g109
NS'octeon'
tp283
(dp284
S'hardware'
p285
S'Octeon'
p286
sS'hardware-long'
p287
S'Cavium Networks Octeon'
p288
ss(g81
g270
g83
tp289
(dp290
g86
I01
sg87
(lp291
S'sh7751r'
p292
aS'sh7785lcr'
p293
ass(S'image'
g43
NS'5kc-malta'
tp294
(dp295
S'configs'
p296
(lp297
S'mips/config.5kc-malta'
p298
ass(S'base'
g146
tp299
(dp300
S'kernel-arch'
p301
S'arm'
p302
sg99
(lp303
g83
ass(S'image'
g49
NS's390x-tape'
tp304
(dp305
S'override-localversion'
p306
S's390x'
p307
sS'type'
p308
S'plain-s390-tape'
p309
sS'initramfs'
p310
I00
ss(S'description'
g49
NS's390x'
tp311
(dp312
S'hardware'
p313
S'IBM zSeries'
p314
sS'parts'
p315
(lp316
S'reader'
p317
ass(S'base'
g163
tp318
(dp319
S'kernel-arch'
p320
S'sparc'
p321
sg99
(lp322
g83
ass(S'build'
g146
NS'ixp4xx'
tp323
(dp324
S'image-file'
p325
S'arch/arm/boot/zImage'
p326
ss(S'build'
g116
NS'omap'
tp327
(dp328
S'image-file'
p329
S'arch/arm/boot/zImage'
p330
ss(g81
g49
g83
tp331
(dp332
g86
I01
sg87
(lp333
S's390x'
p334
aS's390x-tape'
p335
ass(S'build'
g146
NS'iop32x'
tp336
(dp337
S'image-file'
p338
S'arch/arm/boot/zImage'
p339
ss(S'description'
g103
NS's390x-tape'
tp340
(dp341
S'hardware'
p342
S'IBM zSeries'
p343
sS'parts'
p344
(lp345
S'tape'
p346
ass(g81
g103
g83
tp347
(dp348
g86
I01
sg87
(lp349
S's390x'
p350
aS's390x-tape'
p351
ass(S'base'
g109
tp352
(dp353
S'kernel-arch'
p354
S'mips'
p355
sg99
(lp356
g83
ass(S'build'
g5
tp357
(dp358
S'debug-info'
p359
I01
ss(S'description'
g116
NS'omap'
tp360
(dp361
S'hardware'
p362
S'TI OMAP3+'
p363
sS'hardware-long'
p364
S'Texas Instruments OMAP3 or OMAP4 based systems'
p365
ss(S'image'
g43
tp366
(dp367
S'configs'
p368
(lp369
S'kernelarch-mips/config'
p370
aS'mipsel/config'
p371
asS'initramfs'
p372
I00
ss(S'build'
g146
NS'mv78xx0'
tp373
(dp374
S'image-file'
p375
S'arch/arm/boot/zImage'
p376
ss(S'xen'
g61
g62
S'686-pae'
tp377
(dp378
S'flavours'
p379
(lp380
S'i386'
p381
aS'amd64'
p382
asS'dom0-support'
p383
I01
ss(S'description'
S'm68k'
p384
NS'mac'
tp385
(dp386
S'hardware'
p387
S'Macintosh'
p388
ss(S'base'
g5
tp389
(dp390
S'kernel-arch'
p391
S'x86'
p392
sS'featuresets'
p393
(lp394
S'none'
p395
ass(S'base'
g35
tp396
(dp397
S'kernel-arch'
p398
S'ia64'
p399
sg99
(lp400
g83
ass(S'description'
g384
NS'mvme147'
tp401
(dp402
S'hardware'
p403
S'Motorola MVME147'
p404
ss(S'image'
g61
NS'486'
tp405
(dp406
S'configs'
p407
(lp408
S'kernelarch-x86/config-arch-32'
p409
ass(S'base'
g49
tp410
(dp411
S'kernel-arch'
p412
S's390'
p413
sg99
(lp414
g83
ass(S'build'
g61
NS'686-pae'
tp415
(dp416
S'debug-info'
p417
I01
ss(S'description'
g109
NS'4kc-malta'
tp418
(dp419
S'hardware'
p420
S'MIPS Malta'
p421
sS'hardware-long'
p422
S'MIPS Malta boards'
p423
ss(S'description'
g49
NS's390x-tape'
tp424
(dp425
S'hardware'
p426
S'IBM zSeries'
p427
sS'parts'
p428
(lp429
S'tape'
p430
ass(S'description'
g384
NS'atari'
tp431
(dp432
S'hardware'
p433
S'Atari'
p434
ss(S'description'
g61
NS'486'
tp435
(dp436
S'hardware'
p437
S'older PCs'
p438
sS'parts'
p439
(lp440
S'up'
p441
asS'hardware-long'
p442
S'PCs with a single processor not supporting PAE'
p443
ss(S'description'
g133
NS'powerpc64'
tp444
(dp445
S'hardware'
p446
S'64-bit PowerPC'
p447
ss(S'description'
g172
NS'parisc64-smp'
tp448
(dp449
S'hardware'
p450
S'multiprocessor 64-bit PA-RISC'
p451
ss(S'base'
g172
NS'parisc64-smp'
tp452
(dp453
S'override-host-type'
p454
S'hppa64-linux-gnu'
p455
sS'cflags'
p456
S'-fno-cse-follow-jumps'
p457
ss(S'description'
g61
tp458
(dp459
S'part-long-pae'
p460
S'This kernel requires PAE (Physical Address Extension).\nThis feature is supported by the Intel Pentium Pro/II/III/4/4M/D, Xeon,\nCore and Atom; AMD Geode NX, Athlon (K7), Duron, Opteron, Sempron,\nTurion or Phenom; Transmeta Efficeon; VIA C7; and some other processors.'
p461
ss(S'description'
g103
NS's390x'
tp462
(dp463
S'hardware'
p464
S'IBM zSeries'
p465
sS'parts'
p466
(lp467
S'reader'
p468
ass(S'image'
g116
tp469
(dp470
S'suggests'
p471
S'fdutils'
p472
sS'configs'
p473
(lp474
S'armel/config'
p475
aS'armhf/config'
p476
ass(S'xen'
g5
g22
S'amd64'
tp477
(dp478
S'flavours'
p479
(lp480
S'amd64'
p481
asS'dom0-support'
p482
I01
ss(S'image'
g146
tp483
(dp484
S'suggests'
p485
S'fdutils'
p486
ss(S'image'
g49
tp487
(dp488
S'bootloaders'
p489
(lp490
S's390-tools'
p491
ass(S'image'
g61
NS'686-pae'
tp492
(dp493
S'configs'
p494
(lp495
S'kernelarch-x86/config-arch-32'
p496
asS'recommends'
p497
S'libc6-i686'
p498
ss(S'image'
g172
tp499
(dp500
S'suggests'
p501
S'palo'
p502
ss(S'relations'
g172
tp503
(dp504
S'gcc-4.4'
p505
S'gcc-4.4, binutils-hppa64, gcc-4.4-hppa64'
p506
ss(S'image'
g146
NS'iop32x'
tp507
(dp508
S'check-size'
p509
S'1441784'
p510
ss(S'description'
g172
NS'parisc-smp'
tp511
(dp512
S'hardware'
p513
S'multiprocessor 32-bit PA-RISC'
p514
ss(S'image'
g116
NS'omap'
tp515
(dp516
S'recommends'
p517
S'uboot-mkimage'
p518
ss(g81
g172
g83
tp519
(dp520
g86
I01
sg87
(lp521
S'parisc'
p522
aS'parisc-smp'
p523
aS'parisc64'
p524
aS'parisc64-smp'
p525
ass(S'description'
g82
NS'powerpc64'
tp526
(dp527
S'hardware'
p528
S'64-bit PowerPC'
p529
ss(S'image'
g28
tp530
(dp531
S'suggests'
p532
S'aboot, fdutils'
p533
ss(S'base'
g90
tp534
(dp535
S'kernel-arch'
p536
S'sparc'
p537
sg99
(lp538
g83
ass(S'description'
g146
NS'kirkwood'
tp539
(dp540
S'hardware'
p541
S'Marvell Kirkwood'
p542
sS'hardware-long'
p543
S'Marvell Kirkwood based systems (SheevaPlug, QNAP TS-119/TS-219, etc)'
p544
ss(S'description'
g43
NS'sb1-bcm91250a'
tp545
(dp546
S'hardware'
p547
S'BCM91250A'
p548
sS'hardware-long'
p549
S'Broadcom BCM91250A systems (aka SWARM)'
p550
ss(S'base'
g103
tp551
(dp552
S'kernel-arch'
p553
S's390'
p554
sg99
(lp555
g83
ass(g81
g146
g83
tp556
(dp557
g86
I01
sg87
(lp558
S'iop32x'
p559
aS'ixp4xx'
p560
aS'kirkwood'
p561
aS'mv78xx0'
p562
aS'orion5x'
p563
aS'versatile'
p564
ass(S'image'
g82
tp565
(dp566
S'suggests'
p567
S'mkvmlinuz'
p568
sS'configs'
p569
(lp570
S'powerpc/config'
p571
ass(S'image'
g109
tp572
(dp573
S'configs'
p574
(lp575
S'kernelarch-mips/config'
p576
aS'mips/config'
p577
asS'initramfs'
p578
I00
ss(S'image'
g61
tp579
(dp580
S'configs'
p581
(lp582
S'kernelarch-x86/config'
p583
asS'bootloaders'
p584
(lp585
S'grub-pc'
p586
aS'extlinux'
p587
aS'lilo'
p588
ass(S'image'
g163
NS'sparc32'
tp589
(dp590
S'image-postproc'
p591
S'sparc32-image-postproc'
p592
ss(g81
g163
g83
tp593
(dp594
g86
I01
sg87
(lp595
S'sparc64'
p596
aS'sparc64-smp'
p597
ass(S'base'
g82
tp598
(dp599
S'kernel-arch'
p600
S'powerpc'
p601
sg99
(lp602
g83
ass(g81
g28
g83
tp603
(dp604
g86
I01
sg87
(lp605
S'alpha-generic'
p606
aS'alpha-smp'
p607
aS'alpha-legacy'
p608
ass(S'description'
g61
g62
S'686-pae'
tp609
(dp610
S'parts'
p611
(lp612
S'xen'
p613
ass(g81
g35
g83
tp614
(dp615
g86
I01
sg87
(lp616
S'itanium'
p617
aS'mckinley'
p618
ass(S'description'
g49
tp619
(dp620
S'part-short-tape'
p621
S'IPL from tape'
p622
sS'part-long-tape'
p623
S'This kernel has support to IPL (boot) from a tape.'
p624
sS'part-long-reader'
p625
S'This kernel has support to IPL (boot) from a VM reader or DASD device.'
p626
ss(g81
g109
g83
tp627
(dp628
g86
I01
sg87
(lp629
S'r4k-ip22'
p630
aS'r5k-ip32'
p631
aS'sb1-bcm91250a'
p632
aS'sb1a-bcm91480b'
p633
aS'4kc-malta'
p634
aS'5kc-malta'
p635
aS'octeon'
p636
ass(S'description'
g49
NS's390-tape'
tp637
(dp638
S'hardware'
p639
S'IBM S/390'
p640
sS'parts'
p641
(lp642
S'tape'
p643
ass(S'build'
g49
NS's390-tape'
tp644
(dp645
S'modules'
p646
I00
ss(S'description'
g172
NS'parisc'
tp647
(dp648
S'hardware'
p649
S'32-bit PA-RISC'
p650
ss(S'image'
g43
NS'sb1-bcm91250a'
tp651
(dp652
S'configs'
p653
(lp654
S'mips/config.sb1-bcm91250a'
p655
ass(S'image'
g384
tp656
(dp657
S'suggests'
p658
S'vmelilo, fdutils'
p659
sS'initramfs'
p660
I00
ss(S'base'
g172
NS'parisc64'
tp661
(dp662
S'override-host-type'
p663
S'hppa64-linux-gnu'
p664
sS'cflags'
p665
S'-fno-cse-follow-jumps'
p666
ss(S'base'
g116
tp667
(dp668
S'kernel-arch'
p669
S'arm'
p670
sg99
(lp671
g83
ass(S'build'
g146
NS'orion5x'
tp672
(dp673
S'image-file'
p674
S'arch/arm/boot/zImage'
p675
ss(S'description'
g270
NS'sh7785lcr'
tp676
(dp677
S'hardware'
p678
S'sh7785lcr'
p679
sS'hardware-long'
p680
S'Renesas SH7785 reference board'
p681
ss(S'image'
g270
tp682
(dp683
S'suggests'
p684
S'fdutils'
p685
ss(S'description'
g109
NS'5kc-malta'
tp686
(dp687
S'hardware'
p688
S'MIPS Malta (64-bit)'
p689
sS'hardware-long'
p690
S'MIPS Malta boards (64-bit)'
p691
ss(S'base'
g270
tp692
(dp693
S'kernel-arch'
p694
S'sh'
p695
sg99
(lp696
g83
ass(S'image'
g163
tp697
(dp698
S'suggests'
p699
S'silo, fdutils'
p700
ss(S'abi'
NS'rt'
p701
tp702
(dp703
S'ignore-changes'
p704
(lp705
S'*'
ass(S'description'
tp706
(dp707
S'part-long-up'
p708
S'This kernel is not suitable for SMP (multi-processor,\nmulti-core or hyper-threaded) systems.'
p709
sS'part-long-xen'
p710
S'This kernel also runs on a Xen hypervisor.\nIt supports both privileged (dom0) and unprivileged (domU) operation.'
p711
ss(S'description'
g146
NS'ixp4xx'
tp712
(dp713
S'hardware'
p714
S'IXP4xx'
p715
sS'hardware-long'
p716
S'IXP4xx based systems (Linksys NSLU2, etc)'
p717
ss(S'description'
g43
NS'5kc-malta'
tp718
(dp719
S'hardware'
p720
S'MIPS Malta (64-bit)'
p721
sS'hardware-long'
p722
S'MIPS Malta boards (64-bit)'
p723
ss(S'image'
g43
NS'sb1a-bcm91480b'
tp724
(dp725
S'configs'
p726
(lp727
S'mips/config.sb1a-bcm91480b'
p728
ass(S'description'
g90
NS'sparc64-smp'
tp729
(dp730
S'hardware'
p731
S'multiprocessor 64-bit UltraSPARC'
p732
ss(S'description'
g43
NS'r5k-cobalt'
tp733
(dp734
S'hardware'
p735
S'Cobalt'
p736
sS'hardware-long'
p737
S'Cobalt systems (Qube, RaQ, Qube2, RaQ2)'
p738
ss(S'description'
g146
NS'iop32x'
tp739
(dp740
S'hardware'
p741
S'IOP32x'
p742
sS'hardware-long'
p743
S'IOP32x based systems (Thecus N2100, etc)'
p744
ss(S'image'
g90
NS'sparc64'
tp745
(dp746
S'configs'
p747
(lp748
S'sparc/config.sparc64'
p749
ass(S'image'
g90
tp750
(dp751
S'suggests'
p752
S'silo, fdutils'
p753
sS'configs'
p754
(lp755
S'sparc/config'
p756
ass(S'description'
g109
NS'sb1a-bcm91480b'
tp757
(dp758
S'hardware'
p759
S'BCM91480B'
p760
sS'hardware-long'
p761
S'Broadcom BCM91480B systems (aka BigSur)'
p762
ss(S'base'
g133
tp763
(dp764
S'kernel-arch'
p765
S'powerpc'
p766
sg99
(lp767
g83
ass(S'description'
g116
NS'mx5'
tp768
(dp769
S'hardware'
p770
S'Freescale i.MX51'
p771
sS'hardware-long'
p772
S'Support for Freescale i.MX51 family of processors'
p773
ss(S'build'
g270
NS'sh7785lcr'
tp774
(dp775
S'image-file'
p776
S'arch/sh/boot/zImage'
p777
ss(S'description'
g43
NS'sb1a-bcm91480b'
tp778
(dp779
S'hardware'
p780
S'BCM91480B'
p781
sS'hardware-long'
p782
S'Broadcom BCM91480B systems (aka BigSur)'
p783
ss(S'build'
g49
NS's390x-tape'
tp784
(dp785
S'modules'
p786
I00
ss(S'image'
g82
NS'powerpc64'
tp787
(dp788
S'configs'
p789
(lp790
S'powerpc/config.powerpc64'
p791
ass(S'build'
g116
NS'mx5'
tp792
(dp793
S'image-file'
p794
S'arch/arm/boot/zImage'
p795
ss(S'description'
g109
NS'r4k-ip22'
tp796
(dp797
S'hardware'
p798
S'SGI IP22'
p799
sS'hardware-long'
p800
S'SGI IP22 systems (Indy, Indigo2)'
p801
ss(S'description'
g103
tp802
(dp803
S'part-short-tape'
p804
S'IPL from tape'
p805
sS'part-long-tape'
p806
S'This kernel has support to IPL (boot) from a tape.'
p807
sS'part-long-reader'
p808
S'This kernel has support to IPL (boot) from a VM reader or DASD device.'
p809
ss(S'base'
g61
g62
tp810
(dp811
S'flavours'
p812
(lp813
S'486'
p814
aS'686-pae'
p815
aS'amd64'
p816
ass(S'image'
g133
NS'powerpc-smp'
tp817
(dp818
S'configs'
p819
(lp820
S'powerpc/config.powerpc'
p821
aS'powerpc/config.powerpc-smp'
p822
ass(g81
g384
g83
tp823
(dp824
g86
I01
sg87
(lp825
S'amiga'
p826
aS'atari'
p827
aS'bvme6000'
p828
aS'mac'
p829
aS'mvme147'
p830
aS'mvme16x'
p831
ass(S'description'
g61
NS'amd64'
tp832
(dp833
S'hardware'
p834
S'64-bit PCs'
p835
sS'hardware-long'
p836
S'PCs with AMD64 or Intel 64 processors'
p837
ss(S'base'
tp838
(dp839
S'arches'
p840
(lp841
S'alpha'
p842
aS'amd64'
p843
aS'armel'
p844
aS'armhf'
p845
aS'hppa'
p846
aS'i386'
p847
aS'ia64'
p848
aS'm68k'
p849
aS'mips'
p850
aS'mipsel'
p851
aS'powerpc'
p852
aS'ppc64'
p853
aS's390'
p854
aS's390x'
p855
aS'sh4'
p856
aS'sparc'
p857
aS'sparc64'
p858
asS'featuresets'
p859
(lp860
S'none'
p861
aS'rt'
p862
asS'compiler'
p863
S'gcc-4.6'
p864
ss(S'image'
g49
NS's390-tape'
tp865
(dp866
S'override-localversion'
p867
S's390'
p868
sS'type'
p869
S'plain-s390-tape'
p870
sS'initramfs'
p871
I00
ss(S'description'
g133
NS'powerpc-smp'
tp872
(dp873
S'hardware'
p874
S'multiprocessor 32-bit PowerPC'
p875
ss(S'base'
NS'rt'
tp876
(dp877
S'enabled'
p878
I01
ss(S'description'
Ng701
tp879
(dp880
S'part-long-rt'
p881
S'This kernel includes the PREEMPT_RT realtime patch set.'
p882
sS'parts'
p883
(lp884
S'rt'
p885
asS'part-short-rt'
p886
S'PREEMPT_RT'
p887
ss(S'description'
g43
NS'loongson-2f'
tp888
(dp889
S'hardware'
p890
S'Loongson 2F'
p891
sS'hardware-long'
p892
S'Lemote Loongson 2F systems'
p893
ss(S'base'
g384
tp894
(dp895
S'kernel-arch'
p896
S'm68k'
p897
sg99
(lp898
g83
asS'cflags'
p899
S'-ffreestanding'
p900
sS'compiler'
p901
S'gcc-4.6'
p902
ss(S'image'
tp903
(dp904
S'initramfs-generators'
p905
(lp906
S'initramfs-tools'
p907
aS'initramfs-fallback'
p908
asS'type'
p909
S'plain'
p910
ss(S'build'
g146
NS'kirkwood'
tp911
(dp912
S'image-file'
p913
S'arch/arm/boot/zImage'
p914
ss(S'image'
g270
NS'sh7785lcr'
tp915
(dp916
S'check-size'
p917
S'4194304'
p918
sS'recommends'
p919
S'uboot-mkimage'
p920
ss(S'description'
g384
NS'amiga'
tp921
(dp922
S'hardware'
p923
S'Amiga'
p924
ss(S'image'
g5
NS'amd64'
tp925
(dp926
S'configs'
p927
(lp928
S'kernelarch-x86/config-arch-64'
p929
ass(g81
g90
g83
tp930
(dp931
g86
I01
sg87
(lp932
S'sparc64'
p933
aS'sparc64-smp'
p934
ass(S'description'
g133
NS'powerpc'
tp935
(dp936
S'hardware'
p937
S'uniprocessor 32-bit PowerPC'
p938
ss(S'build'
g103
NS's390x-tape'
tp939
(dp940
S'modules'
p941
I00
ss(S'description'
g384
NS'mvme16x'
tp942
(dp943
S'hardware'
p944
S'Motorola MVME162/6/7, MVME172/7'
p945
ss(S'description'
g35
NS'mckinley'
tp946
(dp947
S'hardware'
p948
S'Itanium II'
p949
ss(S'description'
g28
NS'alpha-smp'
tp950
(dp951
S'hardware'
p952
S'Alpha SMP'
p953
sS'hardware-long'
p954
S'DEC Alpha SMP systems with extended kernel start address (Wildfire, Titan, Marvel)'
p955
ss(S'image'
g103
tp956
(dp957
S'configs'
p958
(lp959
S's390/config'
p960
asS'bootloaders'
p961
(lp962
S's390-tools'
p963
ass(S'description'
g163
NS'sparc32'
tp964
(dp965
S'hardware'
p966
S'uniprocessor sparc32 (sun4m)'
p967
ss(S'description'
g384
NS'bvme6000'
tp968
(dp969
S'hardware'
p970
S'BVM BVME4000 and BVME6000'
p971
ss(S'description'
g163
NS'sparc64-smp'
tp972
(dp973
S'hardware'
p974
S'multiprocessor 64-bit UltraSPARC'
p975
ss(S'description'
g146
NS'versatile'
tp976
(dp977
S'hardware'
p978
S'Versatile'
p979
sS'hardware-long'
p980
S'Versatile systems (PB, AB, Qemu)'
p981
ss(S'build'
g270
NS'sh7751r'
tp982
(dp983
S'image-file'
p984
S'arch/sh/boot/zImage'
p985
sstRp986
.