ccopy_reg
_reconstructor
p1
(cdebian_linux.config
ConfigCore
p2
c__builtin__
dict
p3
(dp4
(S'description'
S'sparc'
p5
NS'sparc32'
tp6
(dp7
S'hardware'
p8
S'uniprocessor sparc32 (sun4m)'
p9
ss(S'image'
S'amd64'
p10
tp11
(dp12
S'configs'
p13
(lp14
sS'bootloaders'
p15
(lp16
S'grub-pc'
p17
aS'extlinux'
p18
aS'lilo'
p19
ass(S'build'
S's390x'
p20
NS's390x'
tp21
(dp22
S'debug-info'
p23
I01
ss(S'description'
S'hppa'
p24
NS'parisc'
tp25
(dp26
S'hardware'
p27
S'32-bit PA-RISC'
p28
ss(S'description'
S'powerpc'
p29
NS'powerpc64'
tp30
(dp31
S'hardware'
p32
S'64-bit PowerPC'
p33
ss(S'base'
p34
g10
S'none'
p35
tp36
(dp37
S'implicit-flavour'
p38
I01
sS'flavours'
p39
(lp40
S'amd64'
p41
ass(S'description'
S'mips'
p42
NS'4kc-malta'
tp43
(dp44
S'hardware'
p45
S'MIPS Malta'
p46
sS'hardware-long'
p47
S'MIPS Malta boards'
p48
ss(S'image'
S'ia64'
p49
tp50
(dp51
S'suggests'
p52
S'fdutils'
p53
sS'bootloaders'
p54
(lp55
S'elilo'
p56
ass(S'description'
S'mipsel'
p57
NS'sb1a-bcm91480b'
tp58
(dp59
S'hardware'
p60
S'BCM91480B'
p61
sS'hardware-long'
p62
S'Broadcom BCM91480B systems (aka BigSur)'
p63
ss(S'description'
g24
NS'parisc64'
tp64
(dp65
S'hardware'
p66
S'64-bit PA-RISC'
p67
ss(S'version'
p68
tp69
(dp70
S'abiname'
p71
S'3.8-trunk'
p72
sS'source'
p73
V3.8.5-1~experimental.1
p74
ss(S'base'
g24
NS'parisc64'
tp75
(dp76
S'override-host-type'
p77
S'hppa64-linux-gnu'
p78
sS'cflags'
p79
S'-fno-cse-follow-jumps'
p80
ss(S'description'
S'm68k'
p81
NS'mvme16x'
tp82
(dp83
S'hardware'
p84
S'Motorola MVME162/6/7, MVME172/7'
p85
ss(g34
S'ppc64'
p86
g35
tp87
(dp88
g38
I01
sg39
(lp89
S'powerpc64'
p90
ass(S'description'
g49
NS'itanium'
tp91
(dp92
S'hardware'
p93
S'Itanium'
p94
ss(S'description'
g10
NS'amd64'
tp95
(dp96
S'hardware'
p97
S'64-bit PCs'
p98
sS'parts'
p99
(lp100
S'xen'
p101
asS'hardware-long'
p102
S'PCs with AMD64, Intel 64 or VIA Nano processors'
p103
ss(S'description'
g57
NS'loongson-2f'
tp104
(dp105
S'hardware'
p106
S'Loongson 2F'
p107
sS'hardware-long'
p108
S'Lemote Loongson 2F systems'
p109
ss(S'build'
S'armel'
p110
NS'kirkwood'
tp111
(dp112
S'image-file'
p113
S'arch/arm/boot/zImage'
p114
ss(S'build'
g110
NS'mv78xx0'
tp115
(dp116
S'image-file'
p117
S'arch/arm/boot/zImage'
p118
ss(S'description'
S'alpha'
p119
NS'alpha-generic'
tp120
(dp121
S'hardware'
p122
S'Alpha'
p123
sS'hardware-long'
p124
S'DEC Alpha systems with extended kernel start address (Wildfire, Titan, Marvel)'
p125
ss(S'base'
g119
tp126
(dp127
S'kernel-arch'
p128
S'alpha'
p129
sS'featuresets'
p130
(lp131
g35
ass(S'description'
S'i386'
p132
NS'686-pae'
tp133
(dp134
S'hardware'
p135
S'modern PCs'
p136
sS'parts'
p137
(lp138
S'pae'
p139
aS'xen'
p140
asS'hardware-long'
p141
S'PCs with one or more processors supporting PAE'
p142
ss(g34
S'armhf'
p143
g35
tp144
(dp145
g38
I01
sg39
(lp146
S'mx5'
p147
aS'omap'
p148
aS'vexpress'
p149
ass(S'base'
g143
tp150
(dp151
S'kernel-arch'
p152
S'arm'
p153
sg130
(lp154
g35
ass(S'base'
g132
S'rt'
p155
tp156
(dp157
S'flavours'
p158
(lp159
S'686-pae'
p160
ass(g34
g29
g35
tp161
(dp162
g38
I01
sg39
(lp163
S'powerpc'
p164
aS'powerpc-smp'
p165
aS'powerpc64'
p166
ass(S'description'
g5
NS'sparc64'
tp167
(dp168
S'hardware'
p169
S'uniprocessor 64-bit UltraSPARC'
p170
ss(S'image'
g132
NS'amd64'
tp171
(dp172
S'configs'
p173
(lp174
S'kernelarch-x86/config-arch-64'
p175
asS'recommends'
p176
S'libc6-i686'
p177
ss(S'image'
g29
tp178
(dp179
S'suggests'
p180
S'mkvmlinuz'
p181
ss(S'base'
g10
S'rt'
p182
tp183
(dp184
S'flavours'
p185
(lp186
S'amd64'
p187
ass(S'description'
g81
NS'atari'
tp188
(dp189
S'hardware'
p190
S'Atari'
p191
ss(S'description'
g42
NS'r5k-ip32'
tp192
(dp193
S'hardware'
p194
S'SGI IP32'
p195
sS'hardware-long'
p196
S'SGI IP32 systems (O2)'
p197
ss(S'description'
g57
NS'4kc-malta'
tp198
(dp199
S'hardware'
p200
S'MIPS Malta'
p201
sS'hardware-long'
p202
S'MIPS Malta boards'
p203
ss(S'image'
g110
NS'kirkwood'
tp204
(dp205
S'check-size'
p206
S'2097080'
p207
sS'recommends'
p208
S'uboot-mkimage'
p209
ss(S'base'
g132
tp210
(dp211
S'kernel-arch'
p212
S'x86'
p213
sS'featuresets'
p214
(lp215
g35
ag155
ass(S'base'
g57
tp216
(dp217
S'kernel-arch'
p218
S'mips'
p219
sg130
(lp220
g35
ass(S'base'
g24
NS'parisc64-smp'
tp221
(dp222
S'override-host-type'
p223
S'hppa64-linux-gnu'
p224
sS'cflags'
p225
S'-fno-cse-follow-jumps'
p226
ss(S'description'
g42
NS'sb1a-bcm91480b'
tp227
(dp228
S'hardware'
p229
S'BCM91480B'
p230
sS'hardware-long'
p231
S'Broadcom BCM91480B systems (aka BigSur)'
p232
ss(S'build'
S'sh4'
p233
NS'sh7751r'
tp234
(dp235
S'image-file'
p236
S'arch/sh/boot/zImage'
p237
ss(S'description'
g119
NS'alpha-legacy'
tp238
(dp239
S'hardware'
p240
S'Alpha Legacy'
p241
sS'hardware-long'
p242
S'DEC Alpha systems with legacy kernel start address'
p243
ss(g34
g57
g35
tp244
(dp245
g38
I01
sg39
(lp246
S'r5k-cobalt'
p247
aS'sb1-bcm91250a'
p248
aS'sb1a-bcm91480b'
p249
aS'4kc-malta'
p250
aS'5kc-malta'
p251
aS'loongson-2f'
p252
ass(S'description'
S'powerpcspe'
p253
tp254
(dp255
S'hardware'
p256
S'32-bit PowerPC with SPE (instead of AltiVec) with SMP support'
p257
ss(S'relations'
tp258
(dp259
S'initramfs-fallback'
p260
S'linux-initramfs-tool'
p261
sS'gcc-4.7'
p262
S'gcc-4.7'
p263
sS'gcc-4.6'
p264
S'gcc-4.6'
p265
sS'initramfs-tools'
p266
S'initramfs-tools (>= 0.110~)'
p267
sS'gcc-4.4'
p268
S'gcc-4.4'
p269
ss(S'build'
g143
NS'mx5'
tp270
(dp271
S'image-file'
p272
S'arch/arm/boot/zImage'
p273
ss(S'build'
g110
NS'ixp4xx'
tp274
(dp275
S'image-file'
p276
S'arch/arm/boot/zImage'
p277
ss(S'description'
g42
NS'r4k-ip22'
tp278
(dp279
S'hardware'
p280
S'SGI IP22'
p281
sS'hardware-long'
p282
S'SGI IP22 systems (Indy, Indigo2)'
p283
ss(S'image'
g29
NS'powerpc-smp'
tp284
(dp285
S'configs'
p286
(lp287
S'powerpc/config.powerpc'
p288
aS'powerpc/config.powerpc-smp'
p289
ass(S'description'
g42
NS'5kc-malta'
tp290
(dp291
S'hardware'
p292
S'MIPS Malta (64-bit)'
p293
sS'hardware-long'
p294
S'MIPS Malta boards (64-bit)'
p295
ss(g34
g233
g35
tp296
(dp297
g38
I01
sg39
(lp298
S'sh7751r'
p299
aS'sh7785lcr'
p300
ass(S'description'
g143
NS'mx5'
tp301
(dp302
S'hardware'
p303
S'Freescale i.MX51/53'
p304
sS'hardware-long'
p305
S'Freescale i.MX51 or i.MX53 based systems'
p306
ss(S'description'
g110
NS'kirkwood'
tp307
(dp308
S'hardware'
p309
S'Marvell Kirkwood'
p310
sS'hardware-long'
p311
S'Marvell Kirkwood based systems (SheevaPlug, QNAP TS-119/TS-219, etc)'
p312
ss(S'base'
g110
tp313
(dp314
S'kernel-arch'
p315
S'arm'
p316
sg130
(lp317
g35
ass(S'description'
g24
NS'parisc64-smp'
tp318
(dp319
S'hardware'
p320
S'multiprocessor 64-bit PA-RISC'
p321
ss(S'base'
g5
tp322
(dp323
S'kernel-arch'
p324
S'sparc'
p325
sg130
(lp326
g35
ass(S'description'
g5
NS'sparc64-smp'
tp327
(dp328
S'hardware'
p329
S'multiprocessor 64-bit UltraSPARC'
p330
ss(S'base'
g253
tp331
(dp332
S'kernel-arch'
p333
S'powerpc'
p334
sg130
(lp335
g35
ass(S'description'
g81
NS'mvme147'
tp336
(dp337
S'hardware'
p338
S'Motorola MVME147'
p339
ss(g34
S's390'
p340
g35
tp341
(dp342
g38
I01
sg39
(lp343
S's390x'
p344
ass(S'build'
g132
NS'686-pae'
tp345
(dp346
S'debug-info'
p347
I01
ss(g34
g20
g35
tp348
(dp349
g38
I01
sg39
(lp350
S's390x'
p351
ass(S'base'
g42
tp352
(dp353
S'kernel-arch'
p354
S'mips'
p355
sg130
(lp356
g35
ass(S'description'
g20
NS's390x'
tp357
(dp358
S'hardware'
p359
S'IBM zSeries'
p360
ss(S'build'
g10
tp361
(dp362
S'debug-info'
p363
I01
ss(S'abi'
NS'rt'
p364
tp365
(dp366
S'ignore-changes'
p367
(lp368
S'*'
ass(S'image'
g57
tp369
(dp370
S'initramfs'
p371
I00
ss(S'description'
g119
NS'alpha-smp'
tp372
(dp373
S'hardware'
p374
S'Alpha SMP'
p375
sS'hardware-long'
p376
S'DEC Alpha SMP systems with extended kernel start address (Wildfire, Titan, Marvel)'
p377
ss(S'description'
S'sparc64'
p378
NS'sparc64-smp'
tp379
(dp380
S'hardware'
p381
S'multiprocessor 64-bit UltraSPARC'
p382
ss(S'base'
g10
tp383
(dp384
S'kernel-arch'
p385
S'x86'
p386
sS'featuresets'
p387
(lp388
g35
ag182
ass(S'base'
g49
tp389
(dp390
S'kernel-arch'
p391
S'ia64'
p392
sg130
(lp393
g35
ass(S'image'
g57
NS'sb1-bcm91250a'
tp394
(dp395
S'configs'
p396
(lp397
S'mips/config.sb1-bcm91250a'
p398
ass(S'build'
g340
NS's390x'
tp399
(dp400
S'debug-info'
p401
I01
ss(S'image'
g233
NS'sh7785lcr'
tp402
(dp403
S'check-size'
p404
S'4194304'
p405
sS'recommends'
p406
S'uboot-mkimage'
p407
ss(S'base'
g340
tp408
(dp409
S'kernel-arch'
p410
S's390'
p411
sg130
(lp412
g35
ass(g34
g110
g35
tp413
(dp414
g38
I01
sg39
(lp415
S'iop32x'
p416
aS'ixp4xx'
p417
aS'kirkwood'
p418
aS'mv78xx0'
p419
aS'orion5x'
p420
aS'versatile'
p421
ass(S'description'
g132
NS'amd64'
tp422
(dp423
S'hardware'
p424
S'64-bit PCs'
p425
sS'parts'
p426
(lp427
S'xen'
p428
asS'hardware-long'
p429
S'PCs with AMD64, Intel 64 or VIA Nano processors'
p430
ss(S'description'
g132
tp431
(dp432
S'part-long-pae'
p433
S'This kernel requires PAE (Physical Address Extension).\nThis feature is supported by the Intel Pentium Pro/II/III/4/4M/D, Xeon,\nCore and Atom; AMD Geode NX, Athlon (K7), Duron, Opteron, Sempron,\nTurion or Phenom; Transmeta Efficeon; VIA C7; and some other processors.'
p434
ss(S'image'
g10
NS'amd64'
tp435
(dp436
S'configs'
p437
(lp438
S'kernelarch-x86/config-arch-64'
p439
ass(S'description'
g110
NS'ixp4xx'
tp440
(dp441
S'hardware'
p442
S'IXP4xx'
p443
sS'hardware-long'
p444
S'IXP4xx based systems (Linksys NSLU2, etc)'
p445
ss(g34
g132
g35
tp446
(dp447
g38
I01
sg39
(lp448
S'486'
p449
aS'686-pae'
p450
aS'amd64'
p451
ass(S'image'
g110
tp452
(dp453
S'suggests'
p454
S'fdutils'
p455
ss(S'image'
g340
tp456
(dp457
S'bootloaders'
p458
(lp459
S's390-tools'
p460
ass(S'image'
g132
NS'486'
tp461
(dp462
S'configs'
p463
(lp464
S'kernelarch-x86/config-arch-32'
p465
aS'i386/config.486'
p466
ass(S'image'
g57
NS'sb1a-bcm91480b'
tp467
(dp468
S'configs'
p469
(lp470
S'mips/config.sb1a-bcm91480b'
p471
ass(S'description'
g49
NS'mckinley'
tp472
(dp473
S'hardware'
p474
S'Itanium II'
p475
ss(S'image'
g253
tp476
(dp477
S'suggests'
p478
S'mkvmlinuz'
p479
sS'configs'
p480
(lp481
S'powerpc/config'
p482
aS'powerpcspe/config.powerpcspe'
p483
ass(S'relations'
g24
tp484
(dp485
S'gcc-4.4'
p486
S'gcc-4.4, binutils-hppa64, gcc-4.4-hppa64'
p487
ss(S'xen'
g132
NS'686-pae'
tp488
(dp489
S'flavours'
p490
(lp491
S'i386'
p492
aS'amd64'
p493
ass(S'description'
g29
NS'powerpc'
tp494
(dp495
S'hardware'
p496
S'uniprocessor 32-bit PowerPC'
p497
ss(S'image'
g57
NS'4kc-malta'
tp498
(dp499
S'configs'
p500
(lp501
S'mips/config.4kc-malta'
p502
ass(g34
g24
g35
tp503
(dp504
g38
I01
sg39
(lp505
S'parisc'
p506
aS'parisc-smp'
p507
aS'parisc64'
p508
aS'parisc64-smp'
p509
ass(S'image'
g119
tp510
(dp511
S'suggests'
p512
S'aboot, fdutils'
p513
ss(S'description'
g110
NS'orion5x'
tp514
(dp515
S'hardware'
p516
S'Marvell Orion'
p517
sS'hardware-long'
p518
S'Marvell Orion 5181, 5182 and 5281 based systems (QNAP TS-109/TS-209, etc)'
p519
ss(S'base'
g378
tp520
(dp521
S'kernel-arch'
p522
S'sparc'
p523
sg130
(lp524
g35
ass(S'build'
g110
NS'iop32x'
tp525
(dp526
S'image-file'
p527
S'arch/arm/boot/zImage'
p528
ss(S'base'
NS'rt'
tp529
(dp530
S'enabled'
p531
I01
ss(S'base'
g20
tp532
(dp533
S'kernel-arch'
p534
S's390'
p535
sg130
(lp536
g35
ass(S'description'
g57
NS'r5k-cobalt'
tp537
(dp538
S'hardware'
p539
S'Cobalt'
p540
sS'hardware-long'
p541
S'Cobalt systems (Qube, RaQ, Qube2, RaQ2)'
p542
ss(S'image'
g57
NS'loongson-2f'
tp543
(dp544
S'recommends'
p545
S'libc6-loongson2f'
p546
ss(S'build'
g110
NS'orion5x'
tp547
(dp548
S'image-file'
p549
S'arch/arm/boot/zImage'
p550
ss(S'image'
g86
tp551
(dp552
S'suggests'
p553
S'mkvmlinuz'
p554
sS'configs'
p555
(lp556
S'powerpc/config'
p557
ass(S'image'
g42
tp558
(dp559
S'initramfs'
p560
I00
ss(S'image'
g132
tp561
(dp562
S'configs'
p563
(lp564
sS'bootloaders'
p565
(lp566
S'grub-pc'
p567
aS'extlinux'
p568
aS'lilo'
p569
ass(g34
g5
g35
tp570
(dp571
g38
I01
sg39
(lp572
S'sparc64'
p573
aS'sparc64-smp'
p574
ass(S'base'
g86
tp575
(dp576
S'kernel-arch'
p577
S'powerpc'
p578
sg130
(lp579
g35
ass(g34
g119
g35
tp580
(dp581
g38
I01
sg39
(lp582
S'alpha-generic'
p583
aS'alpha-smp'
p584
aS'alpha-legacy'
p585
ass(S'image'
g378
NS'sparc64-smp'
tp586
(dp587
S'configs'
p588
(lp589
S'sparc/config.sparc64-smp'
p590
ass(g34
g49
g35
tp591
(dp592
g38
I01
sg39
(lp593
S'itanium'
p594
aS'mckinley'
p595
ass(g34
g42
g35
tp596
(dp597
g38
I01
sg39
(lp598
S'r4k-ip22'
p599
aS'r5k-ip32'
p600
aS'sb1-bcm91250a'
p601
aS'sb1a-bcm91480b'
p602
aS'4kc-malta'
p603
aS'5kc-malta'
p604
aS'octeon'
p605
ass(S'description'
g340
NS's390x'
tp606
(dp607
S'hardware'
p608
S'IBM zSeries'
p609
ss(S'description'
g86
NS'powerpc64'
tp610
(dp611
S'hardware'
p612
S'64-bit PowerPC'
p613
ss(S'xen'
g132
NS'amd64'
tp614
(dp615
S'flavours'
p616
(lp617
S'amd64'
p618
ass(S'base'
S'x32'
tp619
(dp620
S'kernel-arch'
p621
S'x86'
p622
sS'featuresets'
p623
(lp624
ss(S'image'
g81
tp625
(dp626
S'suggests'
p627
S'vmelilo, fdutils'
p628
sS'initramfs'
p629
I00
ss(S'description'
g233
NS'sh7751r'
tp630
(dp631
S'hardware'
p632
S'sh7751r'
p633
sS'hardware-long'
p634
S'Renesas SH7751R R2D plus board'
p635
ss(S'description'
g42
NS'sb1-bcm91250a'
tp636
(dp637
S'hardware'
p638
S'BCM91250A'
p639
sS'hardware-long'
p640
S'Broadcom BCM91250A systems (aka SWARM)'
p641
ss(S'description'
g42
NS'octeon'
tp642
(dp643
S'hardware'
p644
S'Octeon'
p645
sS'hardware-long'
p646
S'Cavium Networks Octeon'
p647
ss(S'description'
Ng364
tp648
(dp649
S'part-long-rt'
p650
S'This kernel includes the PREEMPT_RT realtime patch set.'
p651
sS'parts'
p652
(lp653
S'rt'
p654
asS'part-short-rt'
p655
S'PREEMPT_RT'
p656
ss(S'description'
g81
NS'bvme6000'
tp657
(dp658
S'hardware'
p659
S'BVM BVME4000 and BVME6000'
p660
ss(S'image'
g110
NS'ixp4xx'
tp661
(dp662
S'check-size'
p663
S'1441760'
p664
ss(S'image'
g233
tp665
(dp666
S'suggests'
p667
S'fdutils'
p668
ss(S'base'
g24
tp669
(dp670
S'kernel-arch'
p671
S'parisc'
p672
sg130
(lp673
g35
asS'compiler'
p674
S'gcc-4.4'
p675
ss(S'base'
g233
tp676
(dp677
S'kernel-arch'
p678
S'sh'
p679
sg130
(lp680
g35
ass(S'image'
g5
tp681
(dp682
S'suggests'
p683
S'silo, fdutils'
p684
ss(S'description'
tp685
(dp686
S'part-long-up'
p687
S'This kernel is not suitable for SMP (multi-processor,\nmulti-core or hyper-threaded) systems.'
p688
sS'part-long-xen'
p689
S'This kernel also runs on a Xen hypervisor.\nIt supports both privileged (dom0) and unprivileged (domU) operation.'
p690
ss(S'image'
g378
NS'sparc64'
tp691
(dp692
S'configs'
p693
(lp694
S'sparc/config.sparc64'
p695
ass(S'description'
g57
NS'sb1-bcm91250a'
tp696
(dp697
S'hardware'
p698
S'BCM91250A'
p699
sS'hardware-long'
p700
S'Broadcom BCM91250A systems (aka SWARM)'
p701
ss(S'image'
g378
tp702
(dp703
S'suggests'
p704
S'silo, fdutils'
p705
sS'configs'
p706
(lp707
S'sparc/config'
p708
ass(S'description'
g110
NS'iop32x'
tp709
(dp710
S'hardware'
p711
S'IOP32x'
p712
sS'hardware-long'
p713
S'IOP32x based systems (Thecus N2100, etc)'
p714
ss(S'image'
g5
NS'sparc32'
tp715
(dp716
S'image-postproc'
p717
S'sparc32-image-postproc'
p718
ss(S'description'
g29
NS'powerpc-smp'
tp719
(dp720
S'hardware'
p721
S'multiprocessor 32-bit PowerPC'
p722
ss(S'base'
g29
tp723
(dp724
S'kernel-arch'
p725
S'powerpc'
p726
sg130
(lp727
g35
ass(S'build'
g143
NS'vexpress'
tp728
(dp729
S'image-file'
p730
S'arch/arm/boot/zImage'
p731
ss(S'image'
g86
NS'powerpc64'
tp732
(dp733
S'configs'
p734
(lp735
S'powerpc/config.powerpc64'
p736
ass(S'description'
g81
NS'mac'
tp737
(dp738
S'hardware'
p739
S'Macintosh'
p740
ss(S'image'
g143
tp741
(dp742
S'suggests'
p743
S'fdutils'
p744
sS'configs'
p745
(lp746
S'armel/config'
p747
aS'armhf/config'
p748
ass(S'abi'
tp749
(dp750
S'abiname'
p751
S'trunk'
p752
ss(S'description'
g143
NS'vexpress'
tp753
(dp754
S'hardware'
p755
S'ARM Ltd. Versatile Express'
p756
sS'hardware-long'
p757
S'ARM Ltd. Versatile Express family of processors'
p758
ss(g34
g253
g35
tp759
(dp760
g38
I01
sg39
(lp761
S'powerpcspe'
p762
ass(g34
g81
g35
tp763
(dp764
g38
I01
sg39
(lp765
S'amiga'
p766
aS'atari'
p767
aS'bvme6000'
p768
aS'mac'
p769
aS'mvme147'
p770
aS'mvme16x'
p771
ass(S'description'
g132
NS'486'
tp772
(dp773
S'hardware'
p774
S'older PCs'
p775
sS'parts'
p776
(lp777
S'up'
p778
asS'hardware-long'
p779
S'PCs with a single processor not supporting PAE'
p780
ss(S'description'
g143
NS'omap'
tp781
(dp782
S'hardware'
p783
S'TI OMAP3+'
p784
sS'hardware-long'
p785
S'Texas Instruments OMAP3 or OMAP4 based systems'
p786
ss(S'description'
g110
NS'mv78xx0'
tp787
(dp788
S'hardware'
p789
S'Marvell 78xx0'
p790
sS'hardware-long'
p791
S'Marvell DB-78xx0-BP Development Board'
p792
ss(S'base'
tp793
(dp794
S'arches'
p795
(lp796
S'alpha'
p797
aS'amd64'
p798
aS'armel'
p799
aS'armhf'
p800
aS'hppa'
p801
aS'i386'
p802
aS'ia64'
p803
aS'm68k'
p804
aS'mips'
p805
aS'mipsel'
p806
aS'powerpc'
p807
aS'powerpcspe'
p808
aS'ppc64'
p809
aS's390'
p810
aS's390x'
p811
aS'sh4'
p812
aS'sparc'
p813
aS'sparc64'
p814
aS'x32'
p815
asS'featuresets'
p816
(lp817
S'none'
p818
aS'rt'
p819
asS'compiler'
p820
S'gcc-4.7'
p821
ss(S'description'
g110
NS'versatile'
tp822
(dp823
S'hardware'
p824
S'Versatile'
p825
sS'hardware-long'
p826
S'Versatile systems (PB, AB, Qemu)'
p827
ss(S'description'
g24
NS'parisc-smp'
tp828
(dp829
S'hardware'
p830
S'multiprocessor 32-bit PA-RISC'
p831
ss(S'build'
g143
NS'omap'
tp832
(dp833
S'image-file'
p834
S'arch/arm/boot/zImage'
p835
ss(S'base'
g81
tp836
(dp837
S'kernel-arch'
p838
S'm68k'
p839
sg130
(lp840
g35
asS'cflags'
p841
S'-ffreestanding'
p842
sS'compiler'
p843
S'gcc-4.6'
p844
ss(S'description'
g233
NS'sh7785lcr'
tp845
(dp846
S'hardware'
p847
S'sh7785lcr'
p848
sS'hardware-long'
p849
S'Renesas SH7785 reference board'
p850
ss(S'image'
tp851
(dp852
S'initramfs-generators'
p853
(lp854
S'initramfs-tools'
p855
aS'initramfs-fallback'
p856
asS'type'
p857
S'plain'
p858
ss(S'image'
g110
NS'orion5x'
tp859
(dp860
S'check-size'
p861
S'1572792'
p862
sS'recommends'
p863
S'uboot-mkimage'
p864
ss(S'image'
g132
NS'686-pae'
tp865
(dp866
S'configs'
p867
(lp868
S'kernelarch-x86/config-arch-32'
p869
aS'i386/config.686-pae'
p870
asS'recommends'
p871
S'libc6-i686'
p872
ss(S'image'
g57
NS'5kc-malta'
tp873
(dp874
S'configs'
p875
(lp876
S'mips/config.5kc-malta'
p877
ass(S'description'
g340
NS's390'
tp878
(dp879
S'hardware'
p880
S'IBM S/390'
p881
ss(S'image'
g20
NS's390x'
tp882
(dp883
S'configs'
p884
(lp885
S's390/config.s390x'
p886
ass(g34
g378
g35
tp887
(dp888
g38
I01
sg39
(lp889
S'sparc64'
p890
aS'sparc64-smp'
p891
ass(S'image'
g24
tp892
(dp893
S'suggests'
p894
S'palo'
p895
ss(S'build'
g233
NS'sh7785lcr'
tp896
(dp897
S'image-file'
p898
S'arch/sh/boot/zImage'
p899
ss(S'description'
g378
NS'sparc64'
tp900
(dp901
S'hardware'
p902
S'uniprocessor 64-bit UltraSPARC'
p903
ss(S'xen'
g10
NS'amd64'
tp904
(dp905
S'flavours'
p906
(lp907
S'amd64'
p908
ass(S'image'
g20
tp909
(dp910
S'configs'
p911
(lp912
S's390/config'
p913
asS'bootloaders'
p914
(lp915
S's390-tools'
p916
ass(S'description'
g57
NS'5kc-malta'
tp917
(dp918
S'hardware'
p919
S'MIPS Malta (64-bit)'
p920
sS'hardware-long'
p921
S'MIPS Malta boards (64-bit)'
p922
ss(S'image'
g143
NS'omap'
tp923
(dp924
S'recommends'
p925
S'uboot-mkimage'
p926
ss(S'description'
g81
NS'amiga'
tp927
(dp928
S'hardware'
p929
S'Amiga'
p930
ss(S'image'
g110
NS'iop32x'
tp931
(dp932
S'check-size'
p933
S'1441784'
p934
sstRp935
.